ARM GAS  /var/folders/9w/sxkx3zpj5vdcb536f5jvsqpc0000gn/T//ccNfV2cP.s 			page 1


   1              		.cpu cortex-m7
   2              		.arch armv7e-m
   3              		.fpu fpv5-d16
   4              		.eabi_attribute 28, 1
   5              		.eabi_attribute 20, 1
   6              		.eabi_attribute 21, 1
   7              		.eabi_attribute 23, 3
   8              		.eabi_attribute 24, 1
   9              		.eabi_attribute 25, 1
  10              		.eabi_attribute 26, 1
  11              		.eabi_attribute 30, 2
  12              		.eabi_attribute 34, 1
  13              		.eabi_attribute 18, 4
  14              		.file	"chnl.cpp"
  15              		.text
  16              	.Ltext0:
  17              		.cfi_sections	.debug_frame
  18              		.section	.text._ZN5daisy7EncoderD2Ev,"axG",%progbits,_ZN5daisy7EncoderD5Ev,comdat
  19              		.align	1
  20              		.p2align 2,,3
  21              		.weak	_ZN5daisy7EncoderD2Ev
  22              		.syntax unified
  23              		.thumb
  24              		.thumb_func
  26              	_ZN5daisy7EncoderD2Ev:
  27              	.LVL0:
  28              	.LFB1652:
  29              		.file 1 "./libDaisy//src/hid/encoder.h"
   1:./libDaisy//src/hid/encoder.h **** #pragma once
   2:./libDaisy//src/hid/encoder.h **** #ifndef DSY_ENCODER_H
   3:./libDaisy//src/hid/encoder.h **** #define DSY_ENCODER_H
   4:./libDaisy//src/hid/encoder.h **** #include "daisy_core.h"
   5:./libDaisy//src/hid/encoder.h **** #include "per/gpio.h"
   6:./libDaisy//src/hid/encoder.h **** #include "hid/switch.h"
   7:./libDaisy//src/hid/encoder.h **** 
   8:./libDaisy//src/hid/encoder.h **** namespace daisy
   9:./libDaisy//src/hid/encoder.h **** {
  10:./libDaisy//src/hid/encoder.h **** /** 
  11:./libDaisy//src/hid/encoder.h ****     @brief Generic Class for handling Quadrature Encoders \n 
  12:./libDaisy//src/hid/encoder.h ****     Inspired/influenced by Mutable Instruments (pichenettes) Encoder classes
  13:./libDaisy//src/hid/encoder.h ****     @author Stephen Hensley
  14:./libDaisy//src/hid/encoder.h ****     @date December 2019
  15:./libDaisy//src/hid/encoder.h ****     @ingroup controls
  16:./libDaisy//src/hid/encoder.h **** */
  17:./libDaisy//src/hid/encoder.h **** class Encoder
  18:./libDaisy//src/hid/encoder.h **** {
  19:./libDaisy//src/hid/encoder.h ****   public:
  20:./libDaisy//src/hid/encoder.h ****     Encoder() {}
  21:./libDaisy//src/hid/encoder.h ****     ~Encoder() {}
  30              		.loc 1 21 5 view -0
  31              		.cfi_startproc
  32              		@ args = 0, pretend = 0, frame = 0
  33              		@ frame_needed = 0, uses_anonymous_args = 0
  34              		@ link register save eliminated.
  35              	.LBB471:
  36              	.LBI471:
  37              		.file 2 "./libDaisy//src/hid/switch.h"
ARM GAS  /var/folders/9w/sxkx3zpj5vdcb536f5jvsqpc0000gn/T//ccNfV2cP.s 			page 2


   1:./libDaisy//src/hid/switch.h **** #pragma once
   2:./libDaisy//src/hid/switch.h **** #ifndef DSY_SWITCH_H
   3:./libDaisy//src/hid/switch.h **** #define DSY_SWITCH_H
   4:./libDaisy//src/hid/switch.h **** #include "daisy_core.h"
   5:./libDaisy//src/hid/switch.h **** #include "per/gpio.h"
   6:./libDaisy//src/hid/switch.h **** #include "sys/system.h"
   7:./libDaisy//src/hid/switch.h **** 
   8:./libDaisy//src/hid/switch.h **** namespace daisy
   9:./libDaisy//src/hid/switch.h **** {
  10:./libDaisy//src/hid/switch.h **** /** 
  11:./libDaisy//src/hid/switch.h ****     Generic Class for handling momentary/latching switches \n 
  12:./libDaisy//src/hid/switch.h ****     Inspired/influenced by Mutable Instruments (pichenettes) Switch classes
  13:./libDaisy//src/hid/switch.h ****     @author Stephen Hensley
  14:./libDaisy//src/hid/switch.h ****     @date December 2019
  15:./libDaisy//src/hid/switch.h ****     @ingroup controls
  16:./libDaisy//src/hid/switch.h **** */
  17:./libDaisy//src/hid/switch.h **** class Switch
  18:./libDaisy//src/hid/switch.h **** {
  19:./libDaisy//src/hid/switch.h ****   public:
  20:./libDaisy//src/hid/switch.h ****     /** Specifies the expected behavior of the switch */
  21:./libDaisy//src/hid/switch.h ****     enum Type
  22:./libDaisy//src/hid/switch.h ****     {
  23:./libDaisy//src/hid/switch.h ****         TYPE_TOGGLE,    /**< & */
  24:./libDaisy//src/hid/switch.h ****         TYPE_MOMENTARY, /**< & */
  25:./libDaisy//src/hid/switch.h ****     };
  26:./libDaisy//src/hid/switch.h ****     /** Specifies whether the pressed is HIGH or LOW. */
  27:./libDaisy//src/hid/switch.h ****     enum Polarity
  28:./libDaisy//src/hid/switch.h ****     {
  29:./libDaisy//src/hid/switch.h ****         POLARITY_NORMAL,   /**< & */
  30:./libDaisy//src/hid/switch.h ****         POLARITY_INVERTED, /**< & */
  31:./libDaisy//src/hid/switch.h ****     };
  32:./libDaisy//src/hid/switch.h **** 
  33:./libDaisy//src/hid/switch.h ****     /** Specifies whether to use built-in Pull Up/Down resistors to hold button at a given state wh
  34:./libDaisy//src/hid/switch.h ****     enum Pull
  35:./libDaisy//src/hid/switch.h ****     {
  36:./libDaisy//src/hid/switch.h ****         PULL_UP,   /**< & */
  37:./libDaisy//src/hid/switch.h ****         PULL_DOWN, /**< & */
  38:./libDaisy//src/hid/switch.h ****         PULL_NONE, /**< & */
  39:./libDaisy//src/hid/switch.h ****     };
  40:./libDaisy//src/hid/switch.h **** 
  41:./libDaisy//src/hid/switch.h ****     Switch() {}
  42:./libDaisy//src/hid/switch.h ****     ~Switch() {}
  38              		.loc 2 42 5 view .LVU1
  39              		.loc 2 42 5 is_stmt 0 view .LVU2
  40              	.LBE471:
  41              		.loc 1 21 17 view .LVU3
  42 0000 7047     		bx	lr
  43              		.cfi_endproc
  44              	.LFE1652:
  46              		.weak	_ZN5daisy7EncoderD1Ev
  47              		.thumb_set _ZN5daisy7EncoderD1Ev,_ZN5daisy7EncoderD2Ev
  48 0002 00BF     		.section	.text._ZN5daisy8patch_sm12DaisyPatchSMD2Ev,"axG",%progbits,_ZN5daisy8patch_sm12DaisyPatch
  49              		.align	1
  50              		.p2align 2,,3
  51              		.weak	_ZN5daisy8patch_sm12DaisyPatchSMD2Ev
  52              		.syntax unified
  53              		.thumb
ARM GAS  /var/folders/9w/sxkx3zpj5vdcb536f5jvsqpc0000gn/T//ccNfV2cP.s 			page 3


  54              		.thumb_func
  56              	_ZN5daisy8patch_sm12DaisyPatchSMD2Ev:
  57              	.LVL1:
  58              	.LFB2556:
  59              		.file 3 "./libDaisy//src/daisy_patch_sm.h"
   1:./libDaisy//src/daisy_patch_sm.h **** #pragma once
   2:./libDaisy//src/daisy_patch_sm.h **** 
   3:./libDaisy//src/daisy_patch_sm.h **** #include "daisy.h"
   4:./libDaisy//src/daisy_patch_sm.h **** 
   5:./libDaisy//src/daisy_patch_sm.h **** namespace daisy
   6:./libDaisy//src/daisy_patch_sm.h **** {
   7:./libDaisy//src/daisy_patch_sm.h **** namespace patch_sm
   8:./libDaisy//src/daisy_patch_sm.h **** {
   9:./libDaisy//src/daisy_patch_sm.h ****     /** Accessors for the Analog Controls. 
  10:./libDaisy//src/daisy_patch_sm.h ****      *  These cover the 8x Bipolar CV inputs
  11:./libDaisy//src/daisy_patch_sm.h ****      *  as well as the 4x 0-3V3 ADC inputs on
  12:./libDaisy//src/daisy_patch_sm.h ****      *  the hardware 
  13:./libDaisy//src/daisy_patch_sm.h ****      * 
  14:./libDaisy//src/daisy_patch_sm.h ****      *  When reading a value with DaisyPatchSM::GetAdcValue()
  15:./libDaisy//src/daisy_patch_sm.h ****      * 
  16:./libDaisy//src/daisy_patch_sm.h ****      *  patch.GetAdcValue(patch_sm::CV_1);
  17:./libDaisy//src/daisy_patch_sm.h ****      */
  18:./libDaisy//src/daisy_patch_sm.h ****     enum
  19:./libDaisy//src/daisy_patch_sm.h ****     {
  20:./libDaisy//src/daisy_patch_sm.h ****         CV_1 = 0,
  21:./libDaisy//src/daisy_patch_sm.h ****         CV_2,
  22:./libDaisy//src/daisy_patch_sm.h ****         CV_3,
  23:./libDaisy//src/daisy_patch_sm.h ****         CV_4,
  24:./libDaisy//src/daisy_patch_sm.h ****         CV_5,
  25:./libDaisy//src/daisy_patch_sm.h ****         CV_6,
  26:./libDaisy//src/daisy_patch_sm.h ****         CV_7,
  27:./libDaisy//src/daisy_patch_sm.h ****         CV_8,
  28:./libDaisy//src/daisy_patch_sm.h ****         ADC_9,
  29:./libDaisy//src/daisy_patch_sm.h ****         ADC_10,
  30:./libDaisy//src/daisy_patch_sm.h ****         ADC_11,
  31:./libDaisy//src/daisy_patch_sm.h ****         ADC_12,
  32:./libDaisy//src/daisy_patch_sm.h ****         ADC_LAST,
  33:./libDaisy//src/daisy_patch_sm.h ****     };
  34:./libDaisy//src/daisy_patch_sm.h **** 
  35:./libDaisy//src/daisy_patch_sm.h ****     /** Enum for addressing the CV Outputs via the WriteCvOut function. */
  36:./libDaisy//src/daisy_patch_sm.h ****     enum
  37:./libDaisy//src/daisy_patch_sm.h ****     {
  38:./libDaisy//src/daisy_patch_sm.h ****         CV_OUT_BOTH = 0,
  39:./libDaisy//src/daisy_patch_sm.h ****         CV_OUT_1,
  40:./libDaisy//src/daisy_patch_sm.h ****         CV_OUT_2,
  41:./libDaisy//src/daisy_patch_sm.h ****     };
  42:./libDaisy//src/daisy_patch_sm.h **** 
  43:./libDaisy//src/daisy_patch_sm.h **** 
  44:./libDaisy//src/daisy_patch_sm.h ****     /** @brief Board support file for DaisyPatchSM hardware
  45:./libDaisy//src/daisy_patch_sm.h ****      *  @author shensley
  46:./libDaisy//src/daisy_patch_sm.h ****      *  @ingroup boards
  47:./libDaisy//src/daisy_patch_sm.h ****      * 
  48:./libDaisy//src/daisy_patch_sm.h ****      *  Daisy Patch SM is a complete Eurorack module DSP engine.
  49:./libDaisy//src/daisy_patch_sm.h ****      *  Based on the Daisy Seed, with circuits added for 
  50:./libDaisy//src/daisy_patch_sm.h ****      *  interfacing directly with eurorack modular synthesizers.
  51:./libDaisy//src/daisy_patch_sm.h ****      */
  52:./libDaisy//src/daisy_patch_sm.h ****     class DaisyPatchSM
ARM GAS  /var/folders/9w/sxkx3zpj5vdcb536f5jvsqpc0000gn/T//ccNfV2cP.s 			page 4


  53:./libDaisy//src/daisy_patch_sm.h ****     {
  54:./libDaisy//src/daisy_patch_sm.h ****       public:
  55:./libDaisy//src/daisy_patch_sm.h ****         /** Helper for mapping pins, and accessing them using the `GetPin` function */
  56:./libDaisy//src/daisy_patch_sm.h ****         enum class PinBank
  57:./libDaisy//src/daisy_patch_sm.h ****         {
  58:./libDaisy//src/daisy_patch_sm.h ****             A,
  59:./libDaisy//src/daisy_patch_sm.h ****             B,
  60:./libDaisy//src/daisy_patch_sm.h ****             C,
  61:./libDaisy//src/daisy_patch_sm.h ****             D
  62:./libDaisy//src/daisy_patch_sm.h ****         };
  63:./libDaisy//src/daisy_patch_sm.h **** 
  64:./libDaisy//src/daisy_patch_sm.h ****         DaisyPatchSM() {}
  65:./libDaisy//src/daisy_patch_sm.h ****         ~DaisyPatchSM() {}
  60              		.loc 3 65 9 is_stmt 1 view -0
  61              		.cfi_startproc
  62              		@ args = 0, pretend = 0, frame = 0
  63              		@ frame_needed = 0, uses_anonymous_args = 0
  64              		@ link register save eliminated.
  65              	.LBB472:
  66              	.LBI472:
  67              		.file 4 "./libDaisy//src/hid/gatein.h"
   1:./libDaisy//src/hid/gatein.h **** #pragma once
   2:./libDaisy//src/hid/gatein.h **** #ifndef DSY_GATEIN_H
   3:./libDaisy//src/hid/gatein.h **** #define DSY_GATEIN_H
   4:./libDaisy//src/hid/gatein.h **** #include "per/gpio.h"
   5:./libDaisy//src/hid/gatein.h **** 
   6:./libDaisy//src/hid/gatein.h **** namespace daisy
   7:./libDaisy//src/hid/gatein.h **** {
   8:./libDaisy//src/hid/gatein.h **** /**
   9:./libDaisy//src/hid/gatein.h ****    @brief Generic Class for handling gate inputs through GPIO.
  10:./libDaisy//src/hid/gatein.h ****    @author Stephen Hensley
  11:./libDaisy//src/hid/gatein.h ****    @date    March 2020
  12:./libDaisy//src/hid/gatein.h ****    @ingroup controls
  13:./libDaisy//src/hid/gatein.h **** */
  14:./libDaisy//src/hid/gatein.h **** class GateIn
  15:./libDaisy//src/hid/gatein.h **** {
  16:./libDaisy//src/hid/gatein.h ****   public:
  17:./libDaisy//src/hid/gatein.h ****     /** GateIn Constructor */
  18:./libDaisy//src/hid/gatein.h ****     GateIn() {}
  19:./libDaisy//src/hid/gatein.h **** 
  20:./libDaisy//src/hid/gatein.h ****     /** GateIn Destructor */
  21:./libDaisy//src/hid/gatein.h ****     ~GateIn() {}
  68              		.loc 4 21 5 view .LVU5
  69              		.loc 4 21 5 is_stmt 0 view .LVU6
  70              	.LBE472:
  71              	.LBB473:
  72              	.LBI473:
  73              		.loc 4 21 5 is_stmt 1 view .LVU7
  74              		.loc 4 21 5 is_stmt 0 view .LVU8
  75              	.LBE473:
  76              	.LBB474:
  77              	.LBI474:
  78              		.file 5 "./libDaisy//src/dev/codec_pcm3060.h"
   1:./libDaisy//src/dev/codec_pcm3060.h **** #pragma once
   2:./libDaisy//src/dev/codec_pcm3060.h **** #ifndef DSY_CODEC_PCM3060_H
   3:./libDaisy//src/dev/codec_pcm3060.h **** #define DSY_CODEC_PCM3060_H
   4:./libDaisy//src/dev/codec_pcm3060.h **** #include "per/i2c.h"
ARM GAS  /var/folders/9w/sxkx3zpj5vdcb536f5jvsqpc0000gn/T//ccNfV2cP.s 			page 5


   5:./libDaisy//src/dev/codec_pcm3060.h **** namespace daisy
   6:./libDaisy//src/dev/codec_pcm3060.h **** {
   7:./libDaisy//src/dev/codec_pcm3060.h **** /**
   8:./libDaisy//src/dev/codec_pcm3060.h ****  * @brief Driver for the TI PCM3060 Audio Codec.
   9:./libDaisy//src/dev/codec_pcm3060.h ****  * @addtogroup codec
  10:./libDaisy//src/dev/codec_pcm3060.h ****  * 
  11:./libDaisy//src/dev/codec_pcm3060.h ****  * For now this is a limited interface that uses I2C to communicate with the PCM3060
  12:./libDaisy//src/dev/codec_pcm3060.h ****  * The device can also be accessed with SPI, which is not yet supported.
  13:./libDaisy//src/dev/codec_pcm3060.h ****  * 
  14:./libDaisy//src/dev/codec_pcm3060.h ****  * For now all registers are set to their defaults, and the Init function will 
  15:./libDaisy//src/dev/codec_pcm3060.h ****  * perform a MRST and SRST before setting the format to 24bit LJ, and disabling 
  16:./libDaisy//src/dev/codec_pcm3060.h ****  * power save for both the ADC and DAC.
  17:./libDaisy//src/dev/codec_pcm3060.h ****  *
  18:./libDaisy//src/dev/codec_pcm3060.h ****  */
  19:./libDaisy//src/dev/codec_pcm3060.h **** class Pcm3060
  20:./libDaisy//src/dev/codec_pcm3060.h **** {
  21:./libDaisy//src/dev/codec_pcm3060.h ****   public:
  22:./libDaisy//src/dev/codec_pcm3060.h ****     enum class Result
  23:./libDaisy//src/dev/codec_pcm3060.h ****     {
  24:./libDaisy//src/dev/codec_pcm3060.h ****         OK,
  25:./libDaisy//src/dev/codec_pcm3060.h ****         ERR,
  26:./libDaisy//src/dev/codec_pcm3060.h ****     };
  27:./libDaisy//src/dev/codec_pcm3060.h **** 
  28:./libDaisy//src/dev/codec_pcm3060.h ****     Pcm3060() {}
  29:./libDaisy//src/dev/codec_pcm3060.h ****     ~Pcm3060() {}
  79              		.loc 5 29 5 is_stmt 1 view .LVU9
  80              		.loc 5 29 5 is_stmt 0 view .LVU10
  81              	.LBE474:
  82              	.LBB475:
  83              	.LBI475:
  84              		.file 6 "./libDaisy//src/hid/usb.h"
   1:./libDaisy//src/hid/usb.h **** #pragma once
   2:./libDaisy//src/hid/usb.h **** #ifndef DSY_HID_USB_H
   3:./libDaisy//src/hid/usb.h **** #define DSY_HID_USB_H
   4:./libDaisy//src/hid/usb.h **** #include <stdint.h>
   5:./libDaisy//src/hid/usb.h **** #include <stdlib.h>
   6:./libDaisy//src/hid/usb.h **** 
   7:./libDaisy//src/hid/usb.h **** namespace daisy
   8:./libDaisy//src/hid/usb.h **** /** @addtogroup human_interface
   9:./libDaisy//src/hid/usb.h ****     @{
  10:./libDaisy//src/hid/usb.h **** */
  11:./libDaisy//src/hid/usb.h **** 
  12:./libDaisy//src/hid/usb.h **** {
  13:./libDaisy//src/hid/usb.h **** /** 
  14:./libDaisy//src/hid/usb.h ****     @brief Interface for initializing and using the USB Peripherals on the daisy
  15:./libDaisy//src/hid/usb.h ****     @author Stephen Hensley
  16:./libDaisy//src/hid/usb.h ****     @date December 2019
  17:./libDaisy//src/hid/usb.h **** */
  18:./libDaisy//src/hid/usb.h **** class UsbHandle
  19:./libDaisy//src/hid/usb.h **** {
  20:./libDaisy//src/hid/usb.h ****   public:
  21:./libDaisy//src/hid/usb.h ****     /** Return values for USBHandle Functions */
  22:./libDaisy//src/hid/usb.h ****     enum class Result
  23:./libDaisy//src/hid/usb.h ****     {
  24:./libDaisy//src/hid/usb.h ****         OK,
  25:./libDaisy//src/hid/usb.h ****         ERR,
  26:./libDaisy//src/hid/usb.h ****     };
ARM GAS  /var/folders/9w/sxkx3zpj5vdcb536f5jvsqpc0000gn/T//ccNfV2cP.s 			page 6


  27:./libDaisy//src/hid/usb.h **** 
  28:./libDaisy//src/hid/usb.h ****     /** Specified which of the two USB Peripherals to initialize. */
  29:./libDaisy//src/hid/usb.h ****     enum UsbPeriph
  30:./libDaisy//src/hid/usb.h ****     {
  31:./libDaisy//src/hid/usb.h ****         FS_INTERNAL, /**< Internal pin */
  32:./libDaisy//src/hid/usb.h ****         FS_EXTERNAL, /**< FS External D+ pin is Pin 38 (GPIO32). FS External D- pin is Pin 37 (GPIO
  33:./libDaisy//src/hid/usb.h ****         FS_BOTH,     /**< Both */
  34:./libDaisy//src/hid/usb.h ****     };
  35:./libDaisy//src/hid/usb.h **** 
  36:./libDaisy//src/hid/usb.h **** 
  37:./libDaisy//src/hid/usb.h ****     /** Function called upon reception of a buffer */
  38:./libDaisy//src/hid/usb.h ****     typedef void (*ReceiveCallback)(uint8_t* buff, uint32_t* len);
  39:./libDaisy//src/hid/usb.h **** 
  40:./libDaisy//src/hid/usb.h ****     UsbHandle() {}
  41:./libDaisy//src/hid/usb.h **** 
  42:./libDaisy//src/hid/usb.h ****     ~UsbHandle() {}
  85              		.loc 6 42 5 is_stmt 1 view .LVU11
  86              		.loc 6 42 5 is_stmt 0 view .LVU12
  87              	.LBE475:
  88              	.LBB476:
  89              	.LBI476:
  90              		.file 7 "./libDaisy//src/per/adc.h"
   1:./libDaisy//src/per/adc.h **** #pragma once
   2:./libDaisy//src/per/adc.h **** #ifndef DSY_ADC_H
   3:./libDaisy//src/per/adc.h **** #define DSY_ADC_H /**< Macro */
   4:./libDaisy//src/per/adc.h **** #include <stdint.h>
   5:./libDaisy//src/per/adc.h **** #include <stdlib.h>
   6:./libDaisy//src/per/adc.h **** #include "daisy_core.h"
   7:./libDaisy//src/per/adc.h **** #include "per/gpio.h"
   8:./libDaisy//src/per/adc.h **** 
   9:./libDaisy//src/per/adc.h **** #define DSY_ADC_MAX_CHANNELS 16 /**< Maximum number of ADC channels */
  10:./libDaisy//src/per/adc.h **** 
  11:./libDaisy//src/per/adc.h **** namespace daisy
  12:./libDaisy//src/per/adc.h **** {
  13:./libDaisy//src/per/adc.h **** /** @addtogroup per_analog
  14:./libDaisy//src/per/adc.h ****     @{
  15:./libDaisy//src/per/adc.h **** */
  16:./libDaisy//src/per/adc.h **** 
  17:./libDaisy//src/per/adc.h **** /* While there may not be many configuration options here,
  18:./libDaisy//src/per/adc.h **** using a struct like this allows us to add more configuration
  19:./libDaisy//src/per/adc.h **** later without breaking existing functionality.
  20:./libDaisy//src/per/adc.h **** */
  21:./libDaisy//src/per/adc.h **** 
  22:./libDaisy//src/per/adc.h **** /** @brief   Configuration Structure for an ADC Channel 
  23:./libDaisy//src/per/adc.h ****  *  @details This can be used to configure a a single input, 
  24:./libDaisy//src/per/adc.h ****  *           or a multiplexed input, allowing up to 8 inputs on 
  25:./libDaisy//src/per/adc.h ****  *           one channel.
  26:./libDaisy//src/per/adc.h ****  *  @note    Sharing data lines to multiple muxes _is_ possible, but
  27:./libDaisy//src/per/adc.h ****  *           each channel sharing data lines must be set to the maximum
  28:./libDaisy//src/per/adc.h ****  *           number of channels, even if some multiplexers have fewer
  29:./libDaisy//src/per/adc.h ****  *           inputs connected.
  30:./libDaisy//src/per/adc.h **** */
  31:./libDaisy//src/per/adc.h **** struct AdcChannelConfig
  32:./libDaisy//src/per/adc.h **** {
  33:./libDaisy//src/per/adc.h ****     /** Which pin to use for multiplexing */
  34:./libDaisy//src/per/adc.h ****     enum MuxPin
  35:./libDaisy//src/per/adc.h ****     {
ARM GAS  /var/folders/9w/sxkx3zpj5vdcb536f5jvsqpc0000gn/T//ccNfV2cP.s 			page 7


  36:./libDaisy//src/per/adc.h ****         MUX_SEL_0,    /**< & */
  37:./libDaisy//src/per/adc.h ****         MUX_SEL_1,    /**< & */
  38:./libDaisy//src/per/adc.h ****         MUX_SEL_2,    /**< & */
  39:./libDaisy//src/per/adc.h ****         MUX_SEL_LAST, /**< & */
  40:./libDaisy//src/per/adc.h ****     };
  41:./libDaisy//src/per/adc.h **** 
  42:./libDaisy//src/per/adc.h ****     /** \brief per channel conversion speed added to fixed time based on bitdepth, etc. */
  43:./libDaisy//src/per/adc.h ****     enum ConversionSpeed
  44:./libDaisy//src/per/adc.h ****     {
  45:./libDaisy//src/per/adc.h ****         SPEED_1CYCLES_5,
  46:./libDaisy//src/per/adc.h ****         SPEED_2CYCLES_5,
  47:./libDaisy//src/per/adc.h ****         SPEED_8CYCLES_5,
  48:./libDaisy//src/per/adc.h ****         SPEED_16CYCLES_5,
  49:./libDaisy//src/per/adc.h ****         SPEED_32CYCLES_5,
  50:./libDaisy//src/per/adc.h ****         SPEED_64CYCLES_5,
  51:./libDaisy//src/per/adc.h ****         SPEED_387CYCLES_5,
  52:./libDaisy//src/per/adc.h ****         SPEED_810CYCLES_5,
  53:./libDaisy//src/per/adc.h ****     };
  54:./libDaisy//src/per/adc.h **** 
  55:./libDaisy//src/per/adc.h ****     /** Initializes a single ADC pin as an ADC. 
  56:./libDaisy//src/per/adc.h ****     \param pin Pin to init.
  57:./libDaisy//src/per/adc.h ****     \param speed conversion speed for this pin defaults to 8.5 cycles
  58:./libDaisy//src/per/adc.h ****      */
  59:./libDaisy//src/per/adc.h ****     void InitSingle(dsy_gpio_pin pin, ConversionSpeed speed = SPEED_8CYCLES_5);
  60:./libDaisy//src/per/adc.h **** 
  61:./libDaisy//src/per/adc.h ****     /** 
  62:./libDaisy//src/per/adc.h ****     Initializes a single ADC pin as a Multiplexed ADC.
  63:./libDaisy//src/per/adc.h ****     Requires a CD405X Multiplexer connected to the pin.
  64:./libDaisy//src/per/adc.h ****     You only need to supply the mux pins that are required,
  65:./libDaisy//src/per/adc.h ****     e.g. a 4052 mux would only require mux_0 and mux_1.
  66:./libDaisy//src/per/adc.h ****     Internal Callbacks handle the pin addressing.
  67:./libDaisy//src/per/adc.h ****     \param adc_pin &
  68:./libDaisy//src/per/adc.h ****     \param mux_channels must be 1-8
  69:./libDaisy//src/per/adc.h ****     \param mux_0 First mux pin
  70:./libDaisy//src/per/adc.h ****     \param mux_1 Second mux pin
  71:./libDaisy//src/per/adc.h ****     \param mux_2 Third mux pin
  72:./libDaisy//src/per/adc.h ****     \param speed conversion speed for this pin defaults to 8.5 cycles
  73:./libDaisy//src/per/adc.h ****     */
  74:./libDaisy//src/per/adc.h ****     void InitMux(dsy_gpio_pin    adc_pin,
  75:./libDaisy//src/per/adc.h ****                  size_t          mux_channels,
  76:./libDaisy//src/per/adc.h ****                  dsy_gpio_pin    mux_0,
  77:./libDaisy//src/per/adc.h ****                  dsy_gpio_pin    mux_1 = {DSY_GPIOX, 0},
  78:./libDaisy//src/per/adc.h ****                  dsy_gpio_pin    mux_2 = {DSY_GPIOX, 0},
  79:./libDaisy//src/per/adc.h ****                  ConversionSpeed speed = SPEED_8CYCLES_5);
  80:./libDaisy//src/per/adc.h **** 
  81:./libDaisy//src/per/adc.h ****     dsy_gpio        pin_;                   /**< & */
  82:./libDaisy//src/per/adc.h ****     dsy_gpio        mux_pin_[MUX_SEL_LAST]; /**< & */
  83:./libDaisy//src/per/adc.h ****     uint8_t         mux_channels_;          /**< & */
  84:./libDaisy//src/per/adc.h ****     ConversionSpeed speed_;
  85:./libDaisy//src/per/adc.h **** };
  86:./libDaisy//src/per/adc.h **** 
  87:./libDaisy//src/per/adc.h **** /**
  88:./libDaisy//src/per/adc.h ****    @brief Handler for analog to digital conversion
  89:./libDaisy//src/per/adc.h **** */
  90:./libDaisy//src/per/adc.h **** class AdcHandle
  91:./libDaisy//src/per/adc.h **** {
  92:./libDaisy//src/per/adc.h ****   public:
ARM GAS  /var/folders/9w/sxkx3zpj5vdcb536f5jvsqpc0000gn/T//ccNfV2cP.s 			page 8


  93:./libDaisy//src/per/adc.h ****     /** Supported oversampling amounts */
  94:./libDaisy//src/per/adc.h ****     enum OverSampling
  95:./libDaisy//src/per/adc.h ****     {
  96:./libDaisy//src/per/adc.h ****         OVS_NONE, /**< & */
  97:./libDaisy//src/per/adc.h ****         OVS_4,    /**< & */
  98:./libDaisy//src/per/adc.h ****         OVS_8,    /**< & */
  99:./libDaisy//src/per/adc.h ****         OVS_16,   /**< & */
 100:./libDaisy//src/per/adc.h ****         OVS_32,   /**< & */
 101:./libDaisy//src/per/adc.h ****         OVS_64,   /**< & */
 102:./libDaisy//src/per/adc.h ****         OVS_128,  /**< & */
 103:./libDaisy//src/per/adc.h ****         OVS_256,  /**< & */
 104:./libDaisy//src/per/adc.h ****         OVS_512,  /**< & */
 105:./libDaisy//src/per/adc.h ****         OVS_1024, /**< & */
 106:./libDaisy//src/per/adc.h ****         OVS_LAST, /**< & */
 107:./libDaisy//src/per/adc.h ****     };
 108:./libDaisy//src/per/adc.h **** 
 109:./libDaisy//src/per/adc.h ****     AdcHandle() {}
 110:./libDaisy//src/per/adc.h ****     ~AdcHandle() {}
  91              		.loc 7 110 5 is_stmt 1 view .LVU13
  92              		.loc 7 110 5 is_stmt 0 view .LVU14
  93              	.LBE476:
  94              	.LBB477:
  95              	.LBI477:
  96              		.file 8 "./libDaisy//src/hid/audio.h"
   1:./libDaisy//src/hid/audio.h **** #ifndef DSY_AUDIO_H
   2:./libDaisy//src/hid/audio.h **** #define DSY_AUDIO_H /**< & */
   3:./libDaisy//src/hid/audio.h **** 
   4:./libDaisy//src/hid/audio.h **** #include "per/sai.h"
   5:./libDaisy//src/hid/audio.h **** 
   6:./libDaisy//src/hid/audio.h **** namespace daisy
   7:./libDaisy//src/hid/audio.h **** {
   8:./libDaisy//src/hid/audio.h **** /** @brief Audio Engine Handle
   9:./libDaisy//src/hid/audio.h ****  *  @ingroup audio 
  10:./libDaisy//src/hid/audio.h ****  *  @details This class allows for higher level access to an audio engine.
  11:./libDaisy//src/hid/audio.h ****  *           If you're using a SOM like the DaisySeed or DaisyPatchSM (or any 
  12:./libDaisy//src/hid/audio.h ****  *            board that includes one of those objects) then the intialization
  13:./libDaisy//src/hid/audio.h ****  *            is already taken  care of.
  14:./libDaisy//src/hid/audio.h ****  *           If you're setting up your own custom hardware, or need to make changes
  15:./libDaisy//src/hid/audio.h ****  *           you will have to take the following steps:
  16:./libDaisy//src/hid/audio.h ****  *             1. Create and Initialize an SaiHandle or two depending on your requirements
  17:./libDaisy//src/hid/audio.h ****  *             2. Initialize the Audio Handle with the desired settings and the Initialized SaiHand
  18:./libDaisy//src/hid/audio.h ****  *             3. If the connected codec requires special configuration or initialization, do so
  19:./libDaisy//src/hid/audio.h ****  *             4. Write a callback method using either the AudioCallback or the InterleavingAudioCa
  20:./libDaisy//src/hid/audio.h ****  *             5. Start the Audio using one of the StartAudio function
  21:./libDaisy//src/hid/audio.h ****  */
  22:./libDaisy//src/hid/audio.h **** class AudioHandle
  23:./libDaisy//src/hid/audio.h **** {
  24:./libDaisy//src/hid/audio.h ****   public:
  25:./libDaisy//src/hid/audio.h ****     /** Manually configurable details about the Audio Engine */
  26:./libDaisy//src/hid/audio.h ****     /** TODO: Figure out how to get samplerate in here. */
  27:./libDaisy//src/hid/audio.h ****     struct Config
  28:./libDaisy//src/hid/audio.h ****     {
  29:./libDaisy//src/hid/audio.h ****         /** number of samples to process per callback */
  30:./libDaisy//src/hid/audio.h ****         size_t blocksize;
  31:./libDaisy//src/hid/audio.h **** 
  32:./libDaisy//src/hid/audio.h ****         /**< Sample rate of audio */
  33:./libDaisy//src/hid/audio.h ****         SaiHandle::Config::SampleRate samplerate;
ARM GAS  /var/folders/9w/sxkx3zpj5vdcb536f5jvsqpc0000gn/T//ccNfV2cP.s 			page 9


  34:./libDaisy//src/hid/audio.h **** 
  35:./libDaisy//src/hid/audio.h ****         /** factor for adjustment before and after callback for hardware that may have extra headro
  36:./libDaisy//src/hid/audio.h ****         float postgain;
  37:./libDaisy//src/hid/audio.h **** 
  38:./libDaisy//src/hid/audio.h ****         /** factor for additional one-sided compensation to audio path for hardware that may
  39:./libDaisy//src/hid/audio.h ****          *  have unequal input/output ranges
  40:./libDaisy//src/hid/audio.h ****          */
  41:./libDaisy//src/hid/audio.h ****         float output_compensation;
  42:./libDaisy//src/hid/audio.h **** 
  43:./libDaisy//src/hid/audio.h ****         /** Sets default values for config struct */
  44:./libDaisy//src/hid/audio.h ****         Config()
  45:./libDaisy//src/hid/audio.h ****         : blocksize(48),
  46:./libDaisy//src/hid/audio.h ****           samplerate(SaiHandle::Config::SampleRate::SAI_48KHZ),
  47:./libDaisy//src/hid/audio.h ****           postgain(1.f),
  48:./libDaisy//src/hid/audio.h ****           output_compensation(1.f)
  49:./libDaisy//src/hid/audio.h ****         {
  50:./libDaisy//src/hid/audio.h ****         }
  51:./libDaisy//src/hid/audio.h ****     };
  52:./libDaisy//src/hid/audio.h **** 
  53:./libDaisy//src/hid/audio.h ****     enum class Result
  54:./libDaisy//src/hid/audio.h ****     {
  55:./libDaisy//src/hid/audio.h ****         OK,
  56:./libDaisy//src/hid/audio.h ****         ERR,
  57:./libDaisy//src/hid/audio.h ****     };
  58:./libDaisy//src/hid/audio.h **** 
  59:./libDaisy//src/hid/audio.h ****     /** Non-Interleaving input buffer
  60:./libDaisy//src/hid/audio.h ****      * Buffer arranged by float[chn][sample] 
  61:./libDaisy//src/hid/audio.h ****      * const so that the user can't modify the input
  62:./libDaisy//src/hid/audio.h ****      */
  63:./libDaisy//src/hid/audio.h ****     typedef const float* const* InputBuffer;
  64:./libDaisy//src/hid/audio.h **** 
  65:./libDaisy//src/hid/audio.h ****     /** Non-Interleaving output buffer
  66:./libDaisy//src/hid/audio.h ****      * Arranged by float[chn][sample] 
  67:./libDaisy//src/hid/audio.h ****      */
  68:./libDaisy//src/hid/audio.h ****     typedef float** OutputBuffer;
  69:./libDaisy//src/hid/audio.h **** 
  70:./libDaisy//src/hid/audio.h ****     /** Type for a Non-Interleaving audio callback 
  71:./libDaisy//src/hid/audio.h ****      * Non-Interleaving audio callbacks in daisy will be of this type
  72:./libDaisy//src/hid/audio.h ****      */
  73:./libDaisy//src/hid/audio.h ****     typedef void (*AudioCallback)(InputBuffer  in,
  74:./libDaisy//src/hid/audio.h ****                                   OutputBuffer out,
  75:./libDaisy//src/hid/audio.h ****                                   size_t       size);
  76:./libDaisy//src/hid/audio.h **** 
  77:./libDaisy//src/hid/audio.h ****     /** Interleaving Input buffer
  78:./libDaisy//src/hid/audio.h ****      ** audio is prepared as { L0, R0, L1, R1, . . . LN, RN }]
  79:./libDaisy//src/hid/audio.h ****      ** this is const, as the user shouldn't modify it
  80:./libDaisy//src/hid/audio.h ****     */
  81:./libDaisy//src/hid/audio.h ****     typedef const float* InterleavingInputBuffer;
  82:./libDaisy//src/hid/audio.h **** 
  83:./libDaisy//src/hid/audio.h ****     /** Interleaving Output buffer 
  84:./libDaisy//src/hid/audio.h ****      ** audio is prepared as { L0, R0, L1, R1, . . . LN, RN }
  85:./libDaisy//src/hid/audio.h ****     */
  86:./libDaisy//src/hid/audio.h ****     typedef float* InterleavingOutputBuffer;
  87:./libDaisy//src/hid/audio.h **** 
  88:./libDaisy//src/hid/audio.h ****     /** Interleaving Audio Callback 
  89:./libDaisy//src/hid/audio.h ****      * Interleaving audio callbacks in daisy must be of this type
  90:./libDaisy//src/hid/audio.h ****      */
ARM GAS  /var/folders/9w/sxkx3zpj5vdcb536f5jvsqpc0000gn/T//ccNfV2cP.s 			page 10


  91:./libDaisy//src/hid/audio.h ****     typedef void (*InterleavingAudioCallback)(InterleavingInputBuffer  in,
  92:./libDaisy//src/hid/audio.h ****                                               InterleavingOutputBuffer out,
  93:./libDaisy//src/hid/audio.h ****                                               size_t                   size);
  94:./libDaisy//src/hid/audio.h **** 
  95:./libDaisy//src/hid/audio.h ****     AudioHandle() : pimpl_(nullptr) {}
  96:./libDaisy//src/hid/audio.h ****     ~AudioHandle() {}
  97              		.loc 8 96 5 is_stmt 1 view .LVU15
  98              		.loc 8 96 5 is_stmt 0 view .LVU16
  99              	.LBE477:
 100              	.LBB478:
 101              	.LBI478:
 102              		.file 9 "./libDaisy//src/sys/system.h"
   1:./libDaisy//src/sys/system.h **** #ifndef DSY_SYSTEM_H
   2:./libDaisy//src/sys/system.h **** #define DSY_SYSTEM_H
   3:./libDaisy//src/sys/system.h **** 
   4:./libDaisy//src/sys/system.h **** #ifndef UNIT_TEST // for unit tests, a dummy implementation is provided below
   5:./libDaisy//src/sys/system.h **** 
   6:./libDaisy//src/sys/system.h **** #include <cstdint>
   7:./libDaisy//src/sys/system.h **** #include "per/tim.h"
   8:./libDaisy//src/sys/system.h **** 
   9:./libDaisy//src/sys/system.h **** namespace daisy
  10:./libDaisy//src/sys/system.h **** {
  11:./libDaisy//src/sys/system.h **** /** A handle for interacting with the Core System.
  12:./libDaisy//src/sys/system.h ****  ** This includes the Clock tree, MPU, global DMA initialization,
  13:./libDaisy//src/sys/system.h ****  ** cache handling, and any other necessary global initiailzation
  14:./libDaisy//src/sys/system.h ****  **
  15:./libDaisy//src/sys/system.h ****  ** @author shensley
  16:./libDaisy//src/sys/system.h ****  ** @ingroup system
  17:./libDaisy//src/sys/system.h ****  */
  18:./libDaisy//src/sys/system.h **** class System
  19:./libDaisy//src/sys/system.h **** {
  20:./libDaisy//src/sys/system.h ****   public:
  21:./libDaisy//src/sys/system.h ****     /** Contains settings for initializing the System */
  22:./libDaisy//src/sys/system.h ****     struct Config
  23:./libDaisy//src/sys/system.h ****     {
  24:./libDaisy//src/sys/system.h ****         /** Specifies the system clock frequency that feeds APB/AHB clocks, etc. */
  25:./libDaisy//src/sys/system.h ****         enum class SysClkFreq
  26:./libDaisy//src/sys/system.h ****         {
  27:./libDaisy//src/sys/system.h ****             FREQ_400MHZ,
  28:./libDaisy//src/sys/system.h ****             FREQ_480MHZ,
  29:./libDaisy//src/sys/system.h ****         };
  30:./libDaisy//src/sys/system.h **** 
  31:./libDaisy//src/sys/system.h ****         /** Method to call on the struct to set to defaults
  32:./libDaisy//src/sys/system.h ****          ** CPU Freq set to 400MHz
  33:./libDaisy//src/sys/system.h ****          ** Cache Enabled
  34:./libDaisy//src/sys/system.h ****          ** */
  35:./libDaisy//src/sys/system.h ****         void Defaults()
  36:./libDaisy//src/sys/system.h ****         {
  37:./libDaisy//src/sys/system.h ****             cpu_freq    = SysClkFreq::FREQ_400MHZ;
  38:./libDaisy//src/sys/system.h ****             use_dcache  = true;
  39:./libDaisy//src/sys/system.h ****             use_icache  = true;
  40:./libDaisy//src/sys/system.h ****             skip_clocks = false;
  41:./libDaisy//src/sys/system.h ****         }
  42:./libDaisy//src/sys/system.h **** 
  43:./libDaisy//src/sys/system.h ****         /** Method to call on the struct to set to boost mode:
  44:./libDaisy//src/sys/system.h ****          ** CPU Freq set to 480MHz
  45:./libDaisy//src/sys/system.h ****          ** Cache Enabled
ARM GAS  /var/folders/9w/sxkx3zpj5vdcb536f5jvsqpc0000gn/T//ccNfV2cP.s 			page 11


  46:./libDaisy//src/sys/system.h ****          ** */
  47:./libDaisy//src/sys/system.h ****         void Boost()
  48:./libDaisy//src/sys/system.h ****         {
  49:./libDaisy//src/sys/system.h ****             cpu_freq    = SysClkFreq::FREQ_480MHZ;
  50:./libDaisy//src/sys/system.h ****             use_dcache  = true;
  51:./libDaisy//src/sys/system.h ****             use_icache  = true;
  52:./libDaisy//src/sys/system.h ****             skip_clocks = false;
  53:./libDaisy//src/sys/system.h ****         }
  54:./libDaisy//src/sys/system.h **** 
  55:./libDaisy//src/sys/system.h ****         SysClkFreq cpu_freq;
  56:./libDaisy//src/sys/system.h ****         bool       use_dcache;
  57:./libDaisy//src/sys/system.h ****         bool       use_icache;
  58:./libDaisy//src/sys/system.h ****         bool       skip_clocks;
  59:./libDaisy//src/sys/system.h ****     };
  60:./libDaisy//src/sys/system.h **** 
  61:./libDaisy//src/sys/system.h ****     /** Describes the different regions of memory available to the Daisy */
  62:./libDaisy//src/sys/system.h ****     enum MemoryRegion
  63:./libDaisy//src/sys/system.h ****     {
  64:./libDaisy//src/sys/system.h ****         INTERNAL_FLASH = 0,
  65:./libDaisy//src/sys/system.h ****         ITCMRAM,
  66:./libDaisy//src/sys/system.h ****         DTCMRAM,
  67:./libDaisy//src/sys/system.h ****         SRAM_D1,
  68:./libDaisy//src/sys/system.h ****         SRAM_D2,
  69:./libDaisy//src/sys/system.h ****         SRAM_D3,
  70:./libDaisy//src/sys/system.h ****         SDRAM,
  71:./libDaisy//src/sys/system.h ****         QSPI,
  72:./libDaisy//src/sys/system.h ****         INVALID_ADDRESS,
  73:./libDaisy//src/sys/system.h ****     };
  74:./libDaisy//src/sys/system.h **** 
  75:./libDaisy//src/sys/system.h ****     /** Bootloader struct for controlling bootloading parameters */
  76:./libDaisy//src/sys/system.h ****     struct BootInfo
  77:./libDaisy//src/sys/system.h ****     {
  78:./libDaisy//src/sys/system.h ****         enum class Type : uint32_t
  79:./libDaisy//src/sys/system.h ****         {
  80:./libDaisy//src/sys/system.h ****             INVALID      = 0x00000000,
  81:./libDaisy//src/sys/system.h ****             JUMP         = 0xDEADBEEF,
  82:./libDaisy//src/sys/system.h ****             SKIP_TIMEOUT = 0x5AFEB007,
  83:./libDaisy//src/sys/system.h ****             INF_TIMEOUT  = 0xB0074EFA,
  84:./libDaisy//src/sys/system.h ****         } status;
  85:./libDaisy//src/sys/system.h ****         uint32_t data;
  86:./libDaisy//src/sys/system.h ****         enum class Version : uint32_t
  87:./libDaisy//src/sys/system.h ****         {
  88:./libDaisy//src/sys/system.h ****             LT_v6_0 = 0, // Less than v6.0
  89:./libDaisy//src/sys/system.h ****             NONE,        // No bootloader present
  90:./libDaisy//src/sys/system.h ****             v6_0,        // v6.0
  91:./libDaisy//src/sys/system.h ****             v6_1,        // v6.1 or greater
  92:./libDaisy//src/sys/system.h ****             LAST
  93:./libDaisy//src/sys/system.h ****         } version;
  94:./libDaisy//src/sys/system.h ****     };
  95:./libDaisy//src/sys/system.h **** 
  96:./libDaisy//src/sys/system.h ****     System() {}
  97:./libDaisy//src/sys/system.h ****     ~System() {}
 103              		.loc 9 97 5 is_stmt 1 view .LVU17
 104              		.loc 9 97 5 is_stmt 0 view .LVU18
 105              	.LBE478:
 106              		.loc 3 65 26 view .LVU19
 107 0000 7047     		bx	lr
ARM GAS  /var/folders/9w/sxkx3zpj5vdcb536f5jvsqpc0000gn/T//ccNfV2cP.s 			page 12


 108              		.cfi_endproc
 109              	.LFE2556:
 111              		.weak	_ZN5daisy8patch_sm12DaisyPatchSMD1Ev
 112              		.thumb_set _ZN5daisy8patch_sm12DaisyPatchSMD1Ev,_ZN5daisy8patch_sm12DaisyPatchSMD2Ev
 113 0002 00BF     		.section	.text._ZN7daisysp5MetroD2Ev,"axG",%progbits,_ZN7daisysp5MetroD5Ev,comdat
 114              		.align	1
 115              		.p2align 2,,3
 116              		.weak	_ZN7daisysp5MetroD2Ev
 117              		.syntax unified
 118              		.thumb
 119              		.thumb_func
 121              	_ZN7daisysp5MetroD2Ev:
 122              	.LVL2:
 123              	.LFB4665:
 124              		.file 10 "./DaisySP//Source/Utility/metro.h"
   1:./DaisySP//Source/Utility/metro.h **** /*
   2:./DaisySP//Source/Utility/metro.h **** Copyright (c) 2020 Electrosmith, Corp
   3:./DaisySP//Source/Utility/metro.h **** 
   4:./DaisySP//Source/Utility/metro.h **** Use of this source code is governed by an MIT-style
   5:./DaisySP//Source/Utility/metro.h **** license that can be found in the LICENSE file or at
   6:./DaisySP//Source/Utility/metro.h **** https://opensource.org/licenses/MIT.
   7:./DaisySP//Source/Utility/metro.h **** */
   8:./DaisySP//Source/Utility/metro.h **** 
   9:./DaisySP//Source/Utility/metro.h **** #pragma once
  10:./DaisySP//Source/Utility/metro.h **** #ifndef DSY_METRO_H
  11:./DaisySP//Source/Utility/metro.h **** #define DSY_METRO_H
  12:./DaisySP//Source/Utility/metro.h **** #include <stdint.h>
  13:./DaisySP//Source/Utility/metro.h **** #ifdef __cplusplus
  14:./DaisySP//Source/Utility/metro.h **** 
  15:./DaisySP//Source/Utility/metro.h **** namespace daisysp
  16:./DaisySP//Source/Utility/metro.h **** {
  17:./DaisySP//Source/Utility/metro.h **** /** Creates a clock signal at a specific frequency.
  18:./DaisySP//Source/Utility/metro.h **** */
  19:./DaisySP//Source/Utility/metro.h **** class Metro
  20:./DaisySP//Source/Utility/metro.h **** {
  21:./DaisySP//Source/Utility/metro.h ****   public:
  22:./DaisySP//Source/Utility/metro.h ****     Metro() {}
  23:./DaisySP//Source/Utility/metro.h ****     ~Metro() {}
 125              		.loc 10 23 5 is_stmt 1 view -0
 126              		.cfi_startproc
 127              		@ args = 0, pretend = 0, frame = 0
 128              		@ frame_needed = 0, uses_anonymous_args = 0
 129              		@ link register save eliminated.
 130              		.loc 10 23 15 is_stmt 0 view .LVU21
 131 0000 7047     		bx	lr
 132              		.cfi_endproc
 133              	.LFE4665:
 135              		.weak	_ZN7daisysp5MetroD1Ev
 136              		.thumb_set _ZN7daisysp5MetroD1Ev,_ZN7daisysp5MetroD2Ev
 137 0002 00BF     		.section	.rodata._Z14DmaEndCallbackPvN5daisy9SpiHandle6ResultE.str1.4,"aMS",%progbits,1
 138              		.align	2
 139              	.LC11:
 140 0000 444D4120 		.ascii	"DMA OK\000"
 140      4F4B00
 141 0007 00       		.align	2
 142              	.LC12:
 143 0008 444D4120 		.ascii	"DMA failed\000"
ARM GAS  /var/folders/9w/sxkx3zpj5vdcb536f5jvsqpc0000gn/T//ccNfV2cP.s 			page 13


 143      6661696C 
 143      656400
 144              		.section	.text._Z14DmaEndCallbackPvN5daisy9SpiHandle6ResultE,"ax",%progbits
 145              		.align	1
 146              		.p2align 2,,3
 147              		.global	_Z14DmaEndCallbackPvN5daisy9SpiHandle6ResultE
 148              		.syntax unified
 149              		.thumb
 150              		.thumb_func
 152              	_Z14DmaEndCallbackPvN5daisy9SpiHandle6ResultE:
 153              	.LVL3:
 154              	.LFB4688:
 155              		.file 11 "chnl.cpp"
   1:chnl.cpp      **** #include "daisy_patch_sm.h"
   2:chnl.cpp      **** #include "daisysp.h"
   3:chnl.cpp      **** 
   4:chnl.cpp      **** using namespace daisy;
   5:chnl.cpp      **** using namespace patch_sm;
   6:chnl.cpp      **** using namespace daisysp;
   7:chnl.cpp      **** 
   8:chnl.cpp      **** // Pins
   9:chnl.cpp      **** // #define TFT_RST_PIN hw.D2
  10:chnl.cpp      **** // #define TFT_DC_PIN  hw.D3
  11:chnl.cpp      **** // #define TFT_CS_PIN  hw.D1
  12:chnl.cpp      **** GPIO rst;
  13:chnl.cpp      **** GPIO dc;
  14:chnl.cpp      **** GPIO cs;
  15:chnl.cpp      **** GPIO bl;
  16:chnl.cpp      **** 
  17:chnl.cpp      **** SpiHandle spiHandle;
  18:chnl.cpp      **** 
  19:chnl.cpp      **** // ST7789 commands
  20:chnl.cpp      **** #define ST7789_SWRESET 0x01
  21:chnl.cpp      **** #define ST7789_SLPOUT  0x11
  22:chnl.cpp      **** #define ST7789_DISPON  0x29
  23:chnl.cpp      **** #define ST7789_CASET   0x2A
  24:chnl.cpp      **** #define ST7789_RASET   0x2B
  25:chnl.cpp      **** #define ST7789_RAMWR   0x2C
  26:chnl.cpp      **** 
  27:chnl.cpp      **** // Colors
  28:chnl.cpp      **** #define BLACK       0x0000
  29:chnl.cpp      **** #define NAVY        0x000F
  30:chnl.cpp      **** #define DARKGREEN   0x03E0
  31:chnl.cpp      **** #define DARKCYAN    0x03EF
  32:chnl.cpp      **** #define MAROON      0x7800
  33:chnl.cpp      **** #define PURPLE      0x780F
  34:chnl.cpp      **** #define OLIVE       0x7BE0
  35:chnl.cpp      **** #define LIGHTGREY   0xC618
  36:chnl.cpp      **** #define DARKGREY    0x7BEF
  37:chnl.cpp      **** #define BLUE        0x001F
  38:chnl.cpp      **** #define GREEN       0x07E0
  39:chnl.cpp      **** #define CYAN        0x07FF
  40:chnl.cpp      **** #define RED         0xF800
  41:chnl.cpp      **** #define MAGENTA     0xF81F
  42:chnl.cpp      **** #define YELLOW      0xFFE0
  43:chnl.cpp      **** #define WHITE       0xFFFF
  44:chnl.cpp      **** 
ARM GAS  /var/folders/9w/sxkx3zpj5vdcb536f5jvsqpc0000gn/T//ccNfV2cP.s 			page 14


  45:chnl.cpp      **** // Screen dimensions
  46:chnl.cpp      **** #define TFT_WIDTH  240
  47:chnl.cpp      **** #define TFT_HEIGHT 280
  48:chnl.cpp      **** 
  49:chnl.cpp      **** #define HORIZONTAL 0
  50:chnl.cpp      **** #define VERTICAL   1
  51:chnl.cpp      **** 
  52:chnl.cpp      **** size_t DSY_SDRAM_BSS display_buffer[TFT_WIDTH * 5];
  53:chnl.cpp      **** 
  54:chnl.cpp      **** typedef struct{
  55:chnl.cpp      ****     uint16_t WIDTH;
  56:chnl.cpp      ****     uint16_t HEIGHT;
  57:chnl.cpp      ****     uint8_t SCAN_DIR;
  58:chnl.cpp      **** }LCD_1IN69_ATTRIBUTES;
  59:chnl.cpp      **** LCD_1IN69_ATTRIBUTES LCD_1IN69;
  60:chnl.cpp      **** 
  61:chnl.cpp      **** // Set the buffer size and sample rate
  62:chnl.cpp      **** static const size_t kBufferSize = 48000 * 60; // 60 seconds at 48kHz
  63:chnl.cpp      **** 
  64:chnl.cpp      **** // Create a DaisySeed object
  65:chnl.cpp      **** DaisyPatchSM hw;
  66:chnl.cpp      **** 
  67:chnl.cpp      **** // Create a buffer for the audio data
  68:chnl.cpp      **** float DSY_SDRAM_BSS buffer[kBufferSize][2]; // stereo audio
  69:chnl.cpp      **** 
  70:chnl.cpp      **** // Create a variable for the current position
  71:chnl.cpp      **** size_t currentPosition = 0;
  72:chnl.cpp      **** 
  73:chnl.cpp      **** // Create a variable for the loop length
  74:chnl.cpp      **** float metroFreq = 8.0f; // 16th notes at 120bpm
  75:chnl.cpp      **** // Loop length in metro pulses
  76:chnl.cpp      **** int loopLengthPulses = 16;
  77:chnl.cpp      **** size_t loopLengthSamples;
  78:chnl.cpp      **** 
  79:chnl.cpp      **** void ProcessLoopLengthSamples() {
  80:chnl.cpp      ****     loopLengthSamples = 48000 / (metroFreq / loopLengthPulses);
  81:chnl.cpp      **** }
  82:chnl.cpp      **** 
  83:chnl.cpp      **** // Create enum to track looper state
  84:chnl.cpp      **** enum LooperState {
  85:chnl.cpp      ****     PendingClear,
  86:chnl.cpp      ****     PendingRecord,
  87:chnl.cpp      ****     Playing,
  88:chnl.cpp      ****     Recording,
  89:chnl.cpp      ****     Standby
  90:chnl.cpp      **** };
  91:chnl.cpp      **** 
  92:chnl.cpp      **** LooperState state = Standby;
  93:chnl.cpp      **** 
  94:chnl.cpp      **** // Create an encoder
  95:chnl.cpp      **** Encoder encoder;
  96:chnl.cpp      **** 
  97:chnl.cpp      **** // Create a metro for sequencing
  98:chnl.cpp      **** Metro metro;
  99:chnl.cpp      **** 
 100:chnl.cpp      **** // Track metro pulses in loop cycle
 101:chnl.cpp      **** int count = 1;
ARM GAS  /var/folders/9w/sxkx3zpj5vdcb536f5jvsqpc0000gn/T//ccNfV2cP.s 			page 15


 102:chnl.cpp      **** 
 103:chnl.cpp      **** // Function to send a command to the ST7789
 104:chnl.cpp      **** void ST7789V2SendCommand(uint8_t cmd) {
 105:chnl.cpp      ****     dc.Write(0);
 106:chnl.cpp      ****     cs.Write(0);
 107:chnl.cpp      ****     spiHandle.BlockingTransmit(&cmd, 1);
 108:chnl.cpp      ****     cs.Write(1);
 109:chnl.cpp      **** }
 110:chnl.cpp      **** 
 111:chnl.cpp      **** void DmaEndCallback(void* context, SpiHandle::Result result) {
 156              		.loc 11 111 62 is_stmt 1 view -0
 157              		.cfi_startproc
 158              		@ args = 0, pretend = 0, frame = 0
 159              		@ frame_needed = 0, uses_anonymous_args = 0
 112:chnl.cpp      ****     if (result == SpiHandle::Result::OK) {
 160              		.loc 11 112 5 view .LVU23
 111:chnl.cpp      ****     if (result == SpiHandle::Result::OK) {
 161              		.loc 11 111 62 is_stmt 0 view .LVU24
 162 0000 08B5     		push	{r3, lr}
 163              		.cfi_def_cfa_offset 8
 164              		.cfi_offset 3, -8
 165              		.cfi_offset 14, -4
 166              		.loc 11 112 5 view .LVU25
 167 0002 41B9     		cbnz	r1, .L6
 113:chnl.cpp      ****         hw.PrintLine("DMA OK");
 168              		.loc 11 113 9 is_stmt 1 view .LVU26
 169              	.LVL4:
 170              	.LBB479:
 171              	.LBI479:
  66:./libDaisy//src/daisy_patch_sm.h **** 
  67:./libDaisy//src/daisy_patch_sm.h ****         /** Initializes the memories, and core peripherals for the Daisy Patch SM */
  68:./libDaisy//src/daisy_patch_sm.h ****         void Init();
  69:./libDaisy//src/daisy_patch_sm.h **** 
  70:./libDaisy//src/daisy_patch_sm.h ****         /** Starts a non-interleaving audio callback */
  71:./libDaisy//src/daisy_patch_sm.h ****         void StartAudio(AudioHandle::AudioCallback cb);
  72:./libDaisy//src/daisy_patch_sm.h **** 
  73:./libDaisy//src/daisy_patch_sm.h ****         /** Starts an interleaving audio callback */
  74:./libDaisy//src/daisy_patch_sm.h ****         void StartAudio(AudioHandle::InterleavingAudioCallback cb);
  75:./libDaisy//src/daisy_patch_sm.h **** 
  76:./libDaisy//src/daisy_patch_sm.h ****         /** Changes the callback that is executing.
  77:./libDaisy//src/daisy_patch_sm.h ****          *  This may cause clicks if done while audio is processing.
  78:./libDaisy//src/daisy_patch_sm.h ****          */
  79:./libDaisy//src/daisy_patch_sm.h ****         void ChangeAudioCallback(AudioHandle::AudioCallback cb);
  80:./libDaisy//src/daisy_patch_sm.h **** 
  81:./libDaisy//src/daisy_patch_sm.h ****         /** Changes the callback that is executing.
  82:./libDaisy//src/daisy_patch_sm.h ****          *  This may cause clicks if done while audio is processing.
  83:./libDaisy//src/daisy_patch_sm.h ****          */
  84:./libDaisy//src/daisy_patch_sm.h ****         void ChangeAudioCallback(AudioHandle::InterleavingAudioCallback cb);
  85:./libDaisy//src/daisy_patch_sm.h **** 
  86:./libDaisy//src/daisy_patch_sm.h ****         /** Stops the transmission of audio. */
  87:./libDaisy//src/daisy_patch_sm.h ****         void StopAudio();
  88:./libDaisy//src/daisy_patch_sm.h **** 
  89:./libDaisy//src/daisy_patch_sm.h ****         /** Sets the number of samples processed in an audio callback. 
  90:./libDaisy//src/daisy_patch_sm.h ****          *  This will only take effect on the next invocation of `StartAudio`
  91:./libDaisy//src/daisy_patch_sm.h ****          */
  92:./libDaisy//src/daisy_patch_sm.h ****         void SetAudioBlockSize(size_t size);
  93:./libDaisy//src/daisy_patch_sm.h **** 
ARM GAS  /var/folders/9w/sxkx3zpj5vdcb536f5jvsqpc0000gn/T//ccNfV2cP.s 			page 16


  94:./libDaisy//src/daisy_patch_sm.h ****         /** Sets the samplerate for the audio engine 
  95:./libDaisy//src/daisy_patch_sm.h ****          *  This will set it to the closest valid samplerate. Options being:
  96:./libDaisy//src/daisy_patch_sm.h ****          *  8kHz, 16kHz, 32kHz, 48kHz, and 96kHz
  97:./libDaisy//src/daisy_patch_sm.h ****          */
  98:./libDaisy//src/daisy_patch_sm.h ****         void SetAudioSampleRate(float sr);
  99:./libDaisy//src/daisy_patch_sm.h **** 
 100:./libDaisy//src/daisy_patch_sm.h ****         void SetAudioSampleRate(SaiHandle::Config::SampleRate sample_rate);
 101:./libDaisy//src/daisy_patch_sm.h **** 
 102:./libDaisy//src/daisy_patch_sm.h ****         /** Returns the number of samples processed in an audio callback */
 103:./libDaisy//src/daisy_patch_sm.h ****         size_t AudioBlockSize();
 104:./libDaisy//src/daisy_patch_sm.h **** 
 105:./libDaisy//src/daisy_patch_sm.h ****         /** Returns the audio engine's samplerate in Hz */
 106:./libDaisy//src/daisy_patch_sm.h ****         float AudioSampleRate();
 107:./libDaisy//src/daisy_patch_sm.h **** 
 108:./libDaisy//src/daisy_patch_sm.h ****         /** Returns the rate at which the audio callback will be called in Hz */
 109:./libDaisy//src/daisy_patch_sm.h ****         float AudioCallbackRate();
 110:./libDaisy//src/daisy_patch_sm.h **** 
 111:./libDaisy//src/daisy_patch_sm.h ****         /** Starts the Control ADCs 
 112:./libDaisy//src/daisy_patch_sm.h ****          * 
 113:./libDaisy//src/daisy_patch_sm.h ****          *  This is started automatically when Init() is called.
 114:./libDaisy//src/daisy_patch_sm.h ****          */
 115:./libDaisy//src/daisy_patch_sm.h ****         void StartAdc();
 116:./libDaisy//src/daisy_patch_sm.h **** 
 117:./libDaisy//src/daisy_patch_sm.h ****         /** Stops the Control ADCs */
 118:./libDaisy//src/daisy_patch_sm.h ****         void StopAdc();
 119:./libDaisy//src/daisy_patch_sm.h **** 
 120:./libDaisy//src/daisy_patch_sm.h ****         /** Reads and filters all of the analog control inputs */
 121:./libDaisy//src/daisy_patch_sm.h ****         void ProcessAnalogControls();
 122:./libDaisy//src/daisy_patch_sm.h **** 
 123:./libDaisy//src/daisy_patch_sm.h ****         /** Reads and debounces any of the digital control inputs 
 124:./libDaisy//src/daisy_patch_sm.h ****          *  This does nothing on this board at this time.
 125:./libDaisy//src/daisy_patch_sm.h ****          */
 126:./libDaisy//src/daisy_patch_sm.h ****         void ProcessDigitalControls();
 127:./libDaisy//src/daisy_patch_sm.h **** 
 128:./libDaisy//src/daisy_patch_sm.h ****         /** Does both of the above */
 129:./libDaisy//src/daisy_patch_sm.h ****         void ProcessAllControls()
 130:./libDaisy//src/daisy_patch_sm.h ****         {
 131:./libDaisy//src/daisy_patch_sm.h ****             ProcessAnalogControls();
 132:./libDaisy//src/daisy_patch_sm.h ****             ProcessDigitalControls();
 133:./libDaisy//src/daisy_patch_sm.h ****         }
 134:./libDaisy//src/daisy_patch_sm.h **** 
 135:./libDaisy//src/daisy_patch_sm.h ****         /** Returns the current value for one of the ADCs */
 136:./libDaisy//src/daisy_patch_sm.h ****         float GetAdcValue(int idx);
 137:./libDaisy//src/daisy_patch_sm.h **** 
 138:./libDaisy//src/daisy_patch_sm.h ****         /** Returns the STM32 port/pin combo for the desired pin (or an invalid pin for HW only pin
 139:./libDaisy//src/daisy_patch_sm.h ****          *
 140:./libDaisy//src/daisy_patch_sm.h ****          *  Macros at top of file can be used in place of separate arguments (i.e. GetPin(A4), etc.
 141:./libDaisy//src/daisy_patch_sm.h ****          * 
 142:./libDaisy//src/daisy_patch_sm.h ****          *  \param bank should be one of the PinBank options above
 143:./libDaisy//src/daisy_patch_sm.h ****          *  \param idx pin number between 1 and 10 for each of the pins on each header.
 144:./libDaisy//src/daisy_patch_sm.h ****          *  \deprecated please use the Pin definitions in daisy::patch_sm instead
 145:./libDaisy//src/daisy_patch_sm.h ****          */
 146:./libDaisy//src/daisy_patch_sm.h ****         dsy_gpio_pin GetPin(const PinBank bank, const int idx);
 147:./libDaisy//src/daisy_patch_sm.h **** 
 148:./libDaisy//src/daisy_patch_sm.h ****         /** Starts the DAC for the CV Outputs 
 149:./libDaisy//src/daisy_patch_sm.h ****          * 
 150:./libDaisy//src/daisy_patch_sm.h ****          *  By default this starts by running the 
ARM GAS  /var/folders/9w/sxkx3zpj5vdcb536f5jvsqpc0000gn/T//ccNfV2cP.s 			page 17


 151:./libDaisy//src/daisy_patch_sm.h ****          *  internal callback at 48kHz, which will 
 152:./libDaisy//src/daisy_patch_sm.h ****          *  update the values based on the SetCvOut 
 153:./libDaisy//src/daisy_patch_sm.h ****          *  function.
 154:./libDaisy//src/daisy_patch_sm.h ****          * 
 155:./libDaisy//src/daisy_patch_sm.h ****          *  This is started automatically when Init() is called.
 156:./libDaisy//src/daisy_patch_sm.h ****          */
 157:./libDaisy//src/daisy_patch_sm.h ****         void StartDac(DacHandle::DacCallback callback = nullptr);
 158:./libDaisy//src/daisy_patch_sm.h **** 
 159:./libDaisy//src/daisy_patch_sm.h ****         /** Stop the DAC from updating. 
 160:./libDaisy//src/daisy_patch_sm.h ****          *  This will suspend the CV Outputs from changing 
 161:./libDaisy//src/daisy_patch_sm.h ****          */
 162:./libDaisy//src/daisy_patch_sm.h ****         void StopDac();
 163:./libDaisy//src/daisy_patch_sm.h **** 
 164:./libDaisy//src/daisy_patch_sm.h ****         /** Sets specified DAC channel to the target voltage. 
 165:./libDaisy//src/daisy_patch_sm.h ****          *  This may not be 100% accurate without calibration. 
 166:./libDaisy//src/daisy_patch_sm.h ****          *  
 167:./libDaisy//src/daisy_patch_sm.h ****          *  \todo Add Calibration to CV Outputs
 168:./libDaisy//src/daisy_patch_sm.h ****          * 
 169:./libDaisy//src/daisy_patch_sm.h ****          *  \param channel desired channel to update. 0 is both, otherwise 1 or 2 are valid.
 170:./libDaisy//src/daisy_patch_sm.h ****          *  \param voltage value in Volts that you'd like to write to the DAC. The valid range is 0
 171:./libDaisy//src/daisy_patch_sm.h ****          */
 172:./libDaisy//src/daisy_patch_sm.h ****         void WriteCvOut(const int channel, float voltage);
 173:./libDaisy//src/daisy_patch_sm.h **** 
 174:./libDaisy//src/daisy_patch_sm.h ****         /** Here are some wrappers around libDaisy Static functions 
 175:./libDaisy//src/daisy_patch_sm.h ****          *  to provide simpler syntax to those who prefer it. */
 176:./libDaisy//src/daisy_patch_sm.h **** 
 177:./libDaisy//src/daisy_patch_sm.h ****         /** Delays for a specified number of milliseconds */
 178:./libDaisy//src/daisy_patch_sm.h ****         inline void Delay(uint32_t milliseconds)
 179:./libDaisy//src/daisy_patch_sm.h ****         {
 180:./libDaisy//src/daisy_patch_sm.h ****             System::Delay(milliseconds);
 181:./libDaisy//src/daisy_patch_sm.h ****         }
 182:./libDaisy//src/daisy_patch_sm.h **** 
 183:./libDaisy//src/daisy_patch_sm.h ****         /** Gets a random 32-bit value */
 184:./libDaisy//src/daisy_patch_sm.h ****         inline uint32_t GetRandomValue() { return Random::GetValue(); }
 185:./libDaisy//src/daisy_patch_sm.h **** 
 186:./libDaisy//src/daisy_patch_sm.h ****         /** Gets a random floating point value between the specified minimum, and maxmimum */
 187:./libDaisy//src/daisy_patch_sm.h ****         inline float GetRandomFloat(float min = 0.f, float max = 1.f)
 188:./libDaisy//src/daisy_patch_sm.h ****         {
 189:./libDaisy//src/daisy_patch_sm.h ****             return Random::GetFloat(min, max);
 190:./libDaisy//src/daisy_patch_sm.h ****         }
 191:./libDaisy//src/daisy_patch_sm.h **** 
 192:./libDaisy//src/daisy_patch_sm.h ****         void SetLed(bool state);
 193:./libDaisy//src/daisy_patch_sm.h **** 
 194:./libDaisy//src/daisy_patch_sm.h ****         /** Print formatted debug log message
 195:./libDaisy//src/daisy_patch_sm.h ****          */
 196:./libDaisy//src/daisy_patch_sm.h ****         template <typename... VA>
 197:./libDaisy//src/daisy_patch_sm.h ****         static void Print(const char* format, VA... va)
 198:./libDaisy//src/daisy_patch_sm.h ****         {
 199:./libDaisy//src/daisy_patch_sm.h ****             Log::Print(format, va...);
 200:./libDaisy//src/daisy_patch_sm.h ****         }
 201:./libDaisy//src/daisy_patch_sm.h **** 
 202:./libDaisy//src/daisy_patch_sm.h ****         /** Print formatted debug log message with automatic line termination
 203:./libDaisy//src/daisy_patch_sm.h ****          */
 204:./libDaisy//src/daisy_patch_sm.h ****         template <typename... VA>
 205:./libDaisy//src/daisy_patch_sm.h ****         static void PrintLine(const char* format, VA... va)
 172              		.loc 3 205 21 view .LVU27
 173              	.LBB480:
ARM GAS  /var/folders/9w/sxkx3zpj5vdcb536f5jvsqpc0000gn/T//ccNfV2cP.s 			page 18


 206:./libDaisy//src/daisy_patch_sm.h ****         {
 207:./libDaisy//src/daisy_patch_sm.h ****             Log::PrintLine(format, va...);
 174              		.loc 3 207 27 is_stmt 0 view .LVU28
 175 0004 0848     		ldr	r0, .L9
 176              	.LVL5:
 177              		.loc 3 207 27 view .LVU29
 178 0006 FFF7FEFF 		bl	_ZN5daisy6LoggerILNS_17LoggerDestinationE1EE9PrintLineEPKcz
 179              	.LVL6:
 180              		.loc 3 207 27 view .LVU30
 181              	.LBE480:
 182              	.LBE479:
 114:chnl.cpp      ****     } else {
 115:chnl.cpp      ****         hw.PrintLine("DMA failed");
 116:chnl.cpp      ****     }
 117:chnl.cpp      ****     cs.Write(1);
 183              		.loc 11 117 5 is_stmt 1 view .LVU31
 184              		.loc 11 117 13 is_stmt 0 view .LVU32
 185 000a 0121     		movs	r1, #1
 186 000c 0748     		ldr	r0, .L9+4
 118:chnl.cpp      **** }
 187              		.loc 11 118 1 view .LVU33
 188 000e BDE80840 		pop	{r3, lr}
 189              		.cfi_remember_state
 190              		.cfi_restore 14
 191              		.cfi_restore 3
 192              		.cfi_def_cfa_offset 0
 117:chnl.cpp      **** }
 193              		.loc 11 117 13 view .LVU34
 194 0012 FFF7FEBF 		b	_ZN5daisy4GPIO5WriteEb
 195              	.LVL7:
 196              	.L6:
 197              		.cfi_restore_state
 115:chnl.cpp      ****     }
 198              		.loc 11 115 9 is_stmt 1 view .LVU35
 199              	.LBB481:
 200              	.LBI481:
 205:./libDaisy//src/daisy_patch_sm.h ****         {
 201              		.loc 3 205 21 view .LVU36
 202              	.LBB482:
 203              		.loc 3 207 27 is_stmt 0 view .LVU37
 204 0016 0648     		ldr	r0, .L9+8
 205              	.LVL8:
 206              		.loc 3 207 27 view .LVU38
 207 0018 FFF7FEFF 		bl	_ZN5daisy6LoggerILNS_17LoggerDestinationE1EE9PrintLineEPKcz
 208              	.LVL9:
 209              		.loc 3 207 27 view .LVU39
 210              	.LBE482:
 211              	.LBE481:
 117:chnl.cpp      **** }
 212              		.loc 11 117 5 is_stmt 1 view .LVU40
 117:chnl.cpp      **** }
 213              		.loc 11 117 13 is_stmt 0 view .LVU41
 214 001c 0121     		movs	r1, #1
 215 001e 0348     		ldr	r0, .L9+4
 216              		.loc 11 118 1 view .LVU42
 217 0020 BDE80840 		pop	{r3, lr}
 218              		.cfi_restore 14
ARM GAS  /var/folders/9w/sxkx3zpj5vdcb536f5jvsqpc0000gn/T//ccNfV2cP.s 			page 19


 219              		.cfi_restore 3
 220              		.cfi_def_cfa_offset 0
 117:chnl.cpp      **** }
 221              		.loc 11 117 13 view .LVU43
 222 0024 FFF7FEBF 		b	_ZN5daisy4GPIO5WriteEb
 223              	.LVL10:
 224              	.L10:
 225              		.align	2
 226              	.L9:
 227 0028 00000000 		.word	.LC11
 228 002c 00000000 		.word	.LANCHOR0
 229 0030 08000000 		.word	.LC12
 230              		.cfi_endproc
 231              	.LFE4688:
 233              		.section	.rodata._Z13AudioCallbackPKPKfPPfj.str1.4,"aMS",%progbits,1
 234              		.align	2
 235              	.LC13:
 236 0000 72657365 		.ascii	"reset\000"
 236      7400
 237              		.section	.text._Z13AudioCallbackPKPKfPPfj,"ax",%progbits
 238              		.align	1
 239              		.p2align 2,,3
 240              		.global	_Z13AudioCallbackPKPKfPPfj
 241              		.syntax unified
 242              		.thumb
 243              		.thumb_func
 245              	_Z13AudioCallbackPKPKfPPfj:
 246              	.LVL11:
 247              	.LFB4702:
 119:chnl.cpp      **** 
 120:chnl.cpp      **** uint16_t DMA_MIN_SIZE = 16;
 121:chnl.cpp      **** 
 122:chnl.cpp      **** // Function to send 8-bit data to the ST7789
 123:chnl.cpp      **** void ST7789V2SendData8Bit(uint8_t *data, size_t len) {
 124:chnl.cpp      ****     dc.Write(1);
 125:chnl.cpp      ****     cs.Write(0);
 126:chnl.cpp      ****     // spiHandle.DmaTransmit(data, len, nullptr, DmaEndCallback, nullptr);
 127:chnl.cpp      ****     while (len > 0) {
 128:chnl.cpp      **** 		uint16_t chunk_size = len > 65535 ? 65535 : len;
 129:chnl.cpp      ****         if (DMA_MIN_SIZE <= len) {
 130:chnl.cpp      ****             spiHandle.DmaTransmit(data, chunk_size, nullptr, DmaEndCallback, nullptr);
 131:chnl.cpp      ****         } else {
 132:chnl.cpp      ****             spiHandle.BlockingTransmit(data, chunk_size);
 133:chnl.cpp      ****         }
 134:chnl.cpp      **** 		data += chunk_size;
 135:chnl.cpp      **** 		len -= chunk_size;
 136:chnl.cpp      **** 	}
 137:chnl.cpp      **** }
 138:chnl.cpp      **** 
 139:chnl.cpp      **** // Function to send 16-bit data to the ST7789
 140:chnl.cpp      **** void SendData16Bit(uint16_t value) {
 141:chnl.cpp      ****     uint8_t data;
 142:chnl.cpp      ****     data = value >> 8;
 143:chnl.cpp      ****     ST7789V2SendData8Bit(&data, 1);
 144:chnl.cpp      ****     data = value;
 145:chnl.cpp      ****     ST7789V2SendData8Bit(&data, 1);
 146:chnl.cpp      **** }
ARM GAS  /var/folders/9w/sxkx3zpj5vdcb536f5jvsqpc0000gn/T//ccNfV2cP.s 			page 20


 147:chnl.cpp      **** 
 148:chnl.cpp      **** // Function to set the window area on the TFT display for subsequent commands
 149:chnl.cpp      **** void SetWindows(uint16_t Xstart, uint16_t Ystart, uint16_t Xend, uint16_t Yend) {
 150:chnl.cpp      ****     // Check the scan direction of the display
 151:chnl.cpp      ****     if (LCD_1IN69.SCAN_DIR == VERTICAL) {
 152:chnl.cpp      ****         // Set the X coordinates (Column Address Set command)
 153:chnl.cpp      ****         ST7789V2SendCommand(0x2A);
 154:chnl.cpp      ****         SendData16Bit(Xstart);
 155:chnl.cpp      ****         SendData16Bit(Xend);
 156:chnl.cpp      ****         // Set the Y coordinates (Page Address Set command)
 157:chnl.cpp      ****         ST7789V2SendCommand(0x2B);
 158:chnl.cpp      ****         SendData16Bit(Ystart + 20);
 159:chnl.cpp      ****         SendData16Bit(Yend + 20 - 1);
 160:chnl.cpp      ****     } else {
 161:chnl.cpp      ****         // Set the X coordinates (Column Address Set command)
 162:chnl.cpp      ****         ST7789V2SendCommand(0x2A);
 163:chnl.cpp      ****         SendData16Bit(Xstart + 20);
 164:chnl.cpp      ****         SendData16Bit(Xend + 20 - 1);
 165:chnl.cpp      ****         // Set the Y coordinates (Page Address Set command)
 166:chnl.cpp      ****         ST7789V2SendCommand(0x2B);
 167:chnl.cpp      ****         SendData16Bit(Ystart);
 168:chnl.cpp      ****         SendData16Bit(Yend - 1);
 169:chnl.cpp      ****     }
 170:chnl.cpp      ****     
 171:chnl.cpp      ****     // Memory Write command: subsequent data bytes will be written into the memory area defined abo
 172:chnl.cpp      ****     ST7789V2SendCommand(0X2C);
 173:chnl.cpp      **** }
 174:chnl.cpp      **** 
 175:chnl.cpp      **** // Empties looper buffer
 176:chnl.cpp      **** void ResetBuffer() {
 177:chnl.cpp      ****     // Init buffer by filling with zeros.
 178:chnl.cpp      ****     // This prevents white noise playing by default.
 179:chnl.cpp      ****     std::fill(&buffer[0][0], &buffer[kBufferSize][1], 0);
 180:chnl.cpp      **** }
 181:chnl.cpp      **** 
 182:chnl.cpp      **** // Function to reset the ST7789V2 TFT display controller
 183:chnl.cpp      **** static void ST7789V2Reset(void) {
 184:chnl.cpp      ****     rst.Write(0); // Initiate a reset by setting the reset pin low
 185:chnl.cpp      ****     hw.Delay(100); // Wait for 100 milliseconds
 186:chnl.cpp      ****     rst.Write(1); // End the reset by setting the reset pin high
 187:chnl.cpp      ****     hw.Delay(120); // Wait for 120 milliseconds for the controller to complete its internal reset p
 188:chnl.cpp      **** }
 189:chnl.cpp      **** 
 190:chnl.cpp      **** // Function to send a command and associated data to the ST7789V2 display controller
 191:chnl.cpp      **** static void SendCommandData(uint8_t command, std::initializer_list<uint8_t> data_list) {
 192:chnl.cpp      ****     ST7789V2SendCommand(command); // Send the command
 193:chnl.cpp      ****     for (uint8_t data : data_list) { // Loop over each data byte in the list
 194:chnl.cpp      ****         ST7789V2SendData8Bit(&data, 1); // Send the data byte
 195:chnl.cpp      ****     }
 196:chnl.cpp      **** }
 197:chnl.cpp      **** 
 198:chnl.cpp      **** // Function to initialize the ST7789V2 TFT display controller
 199:chnl.cpp      **** static void ST7789V2InitRegister(void) {
 200:chnl.cpp      ****     SendCommandData(0x36, {0x00}); // Set Memory Access Control
 201:chnl.cpp      ****     SendCommandData(0x3A, {0x05}); // Set Interface Pixel Format
 202:chnl.cpp      ****     SendCommandData(0xB2, {0x0B, 0x0B, 0x00, 0x33, 0x35}); // Set Porch Setting
 203:chnl.cpp      ****     SendCommandData(0xB7, {0x11}); // Set Gate Control
ARM GAS  /var/folders/9w/sxkx3zpj5vdcb536f5jvsqpc0000gn/T//ccNfV2cP.s 			page 21


 204:chnl.cpp      ****     SendCommandData(0xBB, {0x35}); // Set VCOM Setting
 205:chnl.cpp      ****     SendCommandData(0xC0, {0x2C}); // Set LCM Control
 206:chnl.cpp      ****     SendCommandData(0xC2, {0x01}); // Set VDV and VRH Command Enable
 207:chnl.cpp      ****     SendCommandData(0xC3, {0x0D}); // Set VRH Set
 208:chnl.cpp      ****     SendCommandData(0xC4, {0x20}); // Set VDV Set
 209:chnl.cpp      ****     SendCommandData(0xC6, {0x13}); // Set Frame Rate Control in Normal Mode
 210:chnl.cpp      ****     SendCommandData(0xD0, {0xA4, 0xA1}); // Set Power Control 1
 211:chnl.cpp      ****     SendCommandData(0xD6, {0xA1}); // Set OTP Program
 212:chnl.cpp      ****     SendCommandData(0xE0, {0xF0, 0x06, 0x0B, 0x0A, 0x09, 0x26, 0x29, 0x33, 0x41, 0x18, 0x16, 0x15, 
 213:chnl.cpp      ****     SendCommandData(0xE1, {0xF0, 0x04, 0x08, 0x08, 0x07, 0x03, 0x28, 0x32, 0x40, 0x3B, 0x19, 0x18, 
 214:chnl.cpp      ****     SendCommandData(0xE4, {0x25, 0x00, 0x00}); // Set Gate Control
 215:chnl.cpp      ****     ST7789V2SendCommand(0x21); // Set Display Inversion ON
 216:chnl.cpp      ****     ST7789V2SendCommand(0x11); // Set Sleep Out
 217:chnl.cpp      ****     hw.Delay(120); // Wait for 120 milliseconds
 218:chnl.cpp      ****     ST7789V2SendCommand(0x29); // Set Display ON
 219:chnl.cpp      **** }
 220:chnl.cpp      **** 
 221:chnl.cpp      **** static void ST7789V2SetAttributes(uint8_t Scan_dir) {
 222:chnl.cpp      ****     // Get the screen scan direction
 223:chnl.cpp      ****     LCD_1IN69.SCAN_DIR = Scan_dir;
 224:chnl.cpp      ****     uint8_t MemoryAccessReg = Scan_dir == HORIZONTAL ? 0X70 : 0x00;
 225:chnl.cpp      ****     // Set the read / write scan direction of the frame memory
 226:chnl.cpp      ****     ST7789V2SendCommand(0x36); // MX, MY, RGB mode
 227:chnl.cpp      ****     ST7789V2SendData8Bit(&MemoryAccessReg, 1); // 0x08 set RGB
 228:chnl.cpp      **** }
 229:chnl.cpp      **** 
 230:chnl.cpp      **** void ST7789V2Init(uint8_t Scan_dir) {
 231:chnl.cpp      ****     // hw reset
 232:chnl.cpp      ****     ST7789V2Reset();
 233:chnl.cpp      ****     // Set the resolution and scanning method of the screen
 234:chnl.cpp      ****     ST7789V2SetAttributes(Scan_dir);
 235:chnl.cpp      ****     // Set the initialization register
 236:chnl.cpp      ****     ST7789V2InitRegister();
 237:chnl.cpp      **** }
 238:chnl.cpp      **** 
 239:chnl.cpp      **** void SetPixel(uint16_t X, uint16_t Y, uint16_t Color) {
 240:chnl.cpp      ****     SetWindows(X, Y, X, Y);
 241:chnl.cpp      ****     SendData16Bit(Color);
 242:chnl.cpp      **** }
 243:chnl.cpp      **** 
 244:chnl.cpp      **** const uint8_t fontData[] = {
 245:chnl.cpp      ****     0b111, 0b101, 0b111, 0b101, 0b101, // A
 246:chnl.cpp      ****     0b111, 0b101, 0b110, 0b101, 0b111, // B
 247:chnl.cpp      ****     0b111, 0b100, 0b100, 0b100, 0b111, // C
 248:chnl.cpp      ****     0b110, 0b101, 0b101, 0b101, 0b110, // D
 249:chnl.cpp      ****     0b111, 0b100, 0b110, 0b100, 0b111, // E
 250:chnl.cpp      ****     0b111, 0b100, 0b110, 0b100, 0b100, // F
 251:chnl.cpp      ****     0b111, 0b100, 0b101, 0b101, 0b111, // G
 252:chnl.cpp      ****     0b101, 0b101, 0b111, 0b101, 0b101, // H
 253:chnl.cpp      ****     0b111, 0b010, 0b010, 0b010, 0b111, // I
 254:chnl.cpp      ****     0b111, 0b001, 0b001, 0b101, 0b111, // J
 255:chnl.cpp      ****     0b101, 0b110, 0b100, 0b110, 0b101, // K
 256:chnl.cpp      ****     0b100, 0b100, 0b100, 0b100, 0b111, // L
 257:chnl.cpp      ****     0b101, 0b111, 0b111, 0b101, 0b101, // M
 258:chnl.cpp      ****     0b101, 0b111, 0b111, 0b111, 0b101, // N
 259:chnl.cpp      ****     0b111, 0b101, 0b101, 0b101, 0b111, // O
 260:chnl.cpp      ****     0b111, 0b101, 0b111, 0b100, 0b100, // P
ARM GAS  /var/folders/9w/sxkx3zpj5vdcb536f5jvsqpc0000gn/T//ccNfV2cP.s 			page 22


 261:chnl.cpp      ****     0b111, 0b101, 0b101, 0b111, 0b011, // Q
 262:chnl.cpp      ****     0b111, 0b101, 0b111, 0b110, 0b101, // R
 263:chnl.cpp      ****     0b111, 0b100, 0b111, 0b001, 0b111, // S
 264:chnl.cpp      ****     0b111, 0b010, 0b010, 0b010, 0b010, // T
 265:chnl.cpp      ****     0b101, 0b101, 0b101, 0b101, 0b111, // U
 266:chnl.cpp      ****     0b101, 0b101, 0b101, 0b111, 0b010, // V
 267:chnl.cpp      ****     0b101, 0b101, 0b111, 0b111, 0b101, // W
 268:chnl.cpp      ****     0b101, 0b101, 0b010, 0b101, 0b101, // X
 269:chnl.cpp      ****     0b101, 0b101, 0b010, 0b010, 0b010, // Y
 270:chnl.cpp      ****     0b111, 0b001, 0b010, 0b100, 0b111,  // Z
 271:chnl.cpp      ****     0b111, 0b101, 0b101, 0b101, 0b111, // 0
 272:chnl.cpp      ****     0b010, 0b110, 0b010, 0b010, 0b111, // 1
 273:chnl.cpp      ****     0b111, 0b001, 0b111, 0b100, 0b111, // 2
 274:chnl.cpp      ****     0b111, 0b001, 0b111, 0b001, 0b111, // 3
 275:chnl.cpp      ****     0b101, 0b101, 0b111, 0b001, 0b001, // 4
 276:chnl.cpp      ****     0b111, 0b100, 0b111, 0b001, 0b111, // 5
 277:chnl.cpp      ****     0b111, 0b100, 0b111, 0b101, 0b111, // 6
 278:chnl.cpp      ****     0b111, 0b001, 0b001, 0b001, 0b001, // 7
 279:chnl.cpp      ****     0b111, 0b101, 0b111, 0b101, 0b111, // 8
 280:chnl.cpp      ****     0b111, 0b101, 0b111, 0b001, 0b111  // 9
 281:chnl.cpp      **** };
 282:chnl.cpp      **** 
 283:chnl.cpp      **** void DrawChar(uint16_t x, uint16_t y, char c, uint16_t color, int scaleX = 4, int scaleY = 4) {
 284:chnl.cpp      ****     // Adjust for 5x3 pixel characters
 285:chnl.cpp      ****     const int charWidth = 3;
 286:chnl.cpp      ****     const int charHeight = 5;
 287:chnl.cpp      **** 
 288:chnl.cpp      ****     // Calculate the offset into the font data for the character
 289:chnl.cpp      ****     int offset;
 290:chnl.cpp      ****     if (c >= 'A' && c <= 'Z') {
 291:chnl.cpp      ****         offset = (c - 'A') * charHeight;
 292:chnl.cpp      ****     } else if (c >= '0' && c <= '9') {
 293:chnl.cpp      ****         offset = ('Z' - 'A' + 1 + c - '0') * charHeight;
 294:chnl.cpp      ****     } else {
 295:chnl.cpp      ****         return; // Unsupported character
 296:chnl.cpp      ****     }
 297:chnl.cpp      **** 
 298:chnl.cpp      ****      // Draw the character
 299:chnl.cpp      ****     for (int row = 0; row < charHeight; row++) {
 300:chnl.cpp      ****         // Get the row data for the character
 301:chnl.cpp      ****         uint8_t rowData = fontData[offset + row];
 302:chnl.cpp      **** 
 303:chnl.cpp      ****         for (int col = 0; col < charWidth; col++) {
 304:chnl.cpp      ****             // Get the pixel value from the row data
 305:chnl.cpp      ****             bool pixel = (rowData >> (charWidth - 1 - col)) & 0x01;
 306:chnl.cpp      **** 
 307:chnl.cpp      ****             // Draw the pixel scaled up
 308:chnl.cpp      ****             if (pixel) {
 309:chnl.cpp      ****                 for (int dx = 0; dx < scaleX; dx++) {
 310:chnl.cpp      ****                     for (int dy = 0; dy < scaleY; dy++) {
 311:chnl.cpp      ****                         SetPixel(x + col*scaleX + dx, y + row*scaleY + dy, color);
 312:chnl.cpp      ****                     }
 313:chnl.cpp      ****                 }
 314:chnl.cpp      ****             }
 315:chnl.cpp      ****         }
 316:chnl.cpp      ****     }
 317:chnl.cpp      **** }
ARM GAS  /var/folders/9w/sxkx3zpj5vdcb536f5jvsqpc0000gn/T//ccNfV2cP.s 			page 23


 318:chnl.cpp      **** 
 319:chnl.cpp      **** void DrawString(int x, int y, const char* str, int color, int scaleX = 4, int scaleY = 4) {
 320:chnl.cpp      ****     // The width of a character in pixels
 321:chnl.cpp      ****     int charWidth = scaleX;
 322:chnl.cpp      **** 
 323:chnl.cpp      ****     // Loop through each character in the string
 324:chnl.cpp      ****     for (int i = 0; str[i] != '\0'; i++) {
 325:chnl.cpp      ****         // Draw the character
 326:chnl.cpp      ****         DrawChar(x + i * charWidth * scaleX, y, str[i], color, scaleX, scaleY);
 327:chnl.cpp      ****     }
 328:chnl.cpp      **** }
 329:chnl.cpp      **** 
 330:chnl.cpp      **** void ClearWindow(int startX = 0, int startY = 0, int endX = TFT_WIDTH, int endY = TFT_HEIGHT) {
 331:chnl.cpp      ****     // Array to hold color data
 332:chnl.cpp      ****     uint8_t data[2];
 333:chnl.cpp      **** 
 334:chnl.cpp      ****     // Set the window to the specified coordinates
 335:chnl.cpp      ****     SetWindows(startX, startY, endX, endY);
 336:chnl.cpp      **** 
 337:chnl.cpp      ****     // Loop over every pixel in the specified window
 338:chnl.cpp      ****     for (uint32_t i = 0; i < (endX - startX + 1) * (endY - startY + 1); i++) {
 339:chnl.cpp      ****         // Split the color into high and low bytes
 340:chnl.cpp      ****         data[0] = (BLACK >> 8)&0xff;
 341:chnl.cpp      ****         data[1] = BLACK;
 342:chnl.cpp      ****         // Send the color data to the screen
 343:chnl.cpp      ****         ST7789V2SendData8Bit(data, 2);
 344:chnl.cpp      ****     }
 345:chnl.cpp      **** }
 346:chnl.cpp      **** 
 347:chnl.cpp      **** // The audio callback
 348:chnl.cpp      **** void AudioCallback(AudioHandle::InputBuffer in, AudioHandle::OutputBuffer out, size_t size) {
 248              		.loc 11 348 93 is_stmt 1 view -0
 249              		.cfi_startproc
 250              		@ args = 0, pretend = 0, frame = 0
 251              		@ frame_needed = 0, uses_anonymous_args = 0
 349:chnl.cpp      ****     float in_level   = 0.5;
 252              		.loc 11 349 5 view .LVU45
 350:chnl.cpp      ****     float loop_level = 1;
 253              		.loc 11 350 5 view .LVU46
 351:chnl.cpp      ****     
 352:chnl.cpp      ****     for (size_t i = 0; i < size; i++) {
 254              		.loc 11 352 5 view .LVU47
 255              	.LBB483:
 256              		.loc 11 352 26 view .LVU48
 257 0000 002A     		cmp	r2, #0
 258 0002 00F0B980 		beq	.L33
 259              	.LBE483:
 348:chnl.cpp      ****     float in_level   = 0.5;
 260              		.loc 11 348 93 is_stmt 0 view .LVU49
 261 0006 2DE9F84F 		push	{r3, r4, r5, r6, r7, r8, r9, r10, fp, lr}
 262              		.cfi_def_cfa_offset 40
 263              		.cfi_offset 3, -40
 264              		.cfi_offset 4, -36
 265              		.cfi_offset 5, -32
 266              		.cfi_offset 6, -28
 267              		.cfi_offset 7, -24
 268              		.cfi_offset 8, -20
ARM GAS  /var/folders/9w/sxkx3zpj5vdcb536f5jvsqpc0000gn/T//ccNfV2cP.s 			page 24


 269              		.cfi_offset 9, -16
 270              		.cfi_offset 10, -12
 271              		.cfi_offset 11, -8
 272              		.cfi_offset 14, -4
 273 000a 8346     		mov	fp, r0
 274 000c 8A46     		mov	r10, r1
 275 000e 1646     		mov	r6, r2
 276              	.LBB503:
 277              		.loc 11 352 17 view .LVU50
 278 0010 0024     		movs	r4, #0
 279 0012 DFF88481 		ldr	r8, .L39+28
 280 0016 594F     		ldr	r7, .L39
 281 0018 594D     		ldr	r5, .L39+4
 282 001a DFF88091 		ldr	r9, .L39+32
 283 001e 3DE0     		b	.L12
 284              	.LVL12:
 285              	.L37:
 286              	.LBB484:
 353:chnl.cpp      ****         if (metro.Process()) {
 354:chnl.cpp      ****             if (count < loopLengthPulses) {
 287              		.loc 11 354 13 is_stmt 1 view .LVU51
 288              		.loc 11 354 23 is_stmt 0 view .LVU52
 289 0020 584A     		ldr	r2, .L39+8
 290 0022 5949     		ldr	r1, .L39+12
 291 0024 1368     		ldr	r3, [r2]
 292              		.loc 11 354 13 view .LVU53
 293 0026 0968     		ldr	r1, [r1]
 294 0028 8B42     		cmp	r3, r1
 295 002a 5EDA     		bge	.L14
 355:chnl.cpp      ****                 count++;
 296              		.loc 11 355 17 is_stmt 1 view .LVU54
 297              		.loc 11 355 22 is_stmt 0 view .LVU55
 298 002c 0133     		adds	r3, r3, #1
 356:chnl.cpp      ****             } else {
 357:chnl.cpp      ****                 hw.PrintLine("reset");
 358:chnl.cpp      ****                 count = 1;
 359:chnl.cpp      ****                 switch (state) {
 360:chnl.cpp      ****                     case LooperState::Recording:
 361:chnl.cpp      ****                         state = LooperState::Playing;
 362:chnl.cpp      ****                         break;
 363:chnl.cpp      ****                     case LooperState::PendingRecord:
 364:chnl.cpp      ****                         state = LooperState::Recording;
 365:chnl.cpp      ****                         break;
 366:chnl.cpp      ****                     case LooperState::PendingClear:
 367:chnl.cpp      ****                         state = LooperState::Standby;
 368:chnl.cpp      ****                         ResetBuffer();
 369:chnl.cpp      ****                         break;
 370:chnl.cpp      ****                     case LooperState::Playing:
 371:chnl.cpp      ****                     case LooperState::Standby:
 372:chnl.cpp      ****                         break;
 373:chnl.cpp      ****                 }
 374:chnl.cpp      ****             }
 375:chnl.cpp      ****         }
 376:chnl.cpp      **** 
 377:chnl.cpp      ****         // store the inputs * the input gain factor
 378:chnl.cpp      ****         float in_l = IN_L[i] * in_level;
 379:chnl.cpp      ****         float in_r = IN_R[i] * in_level;
ARM GAS  /var/folders/9w/sxkx3zpj5vdcb536f5jvsqpc0000gn/T//ccNfV2cP.s 			page 25


 380:chnl.cpp      **** 
 381:chnl.cpp      ****         // If we're recording, store the incoming audio in the buffer
 382:chnl.cpp      ****         if (state == LooperState::Recording) {
 299              		.loc 11 382 19 view .LVU56
 300 002e 98F80000 		ldrb	r0, [r8]	@ zero_extendqisi2
 355:chnl.cpp      ****                 count++;
 301              		.loc 11 355 22 view .LVU57
 302 0032 1360     		str	r3, [r2]
 303              	.L15:
 378:chnl.cpp      ****         float in_r = IN_R[i] * in_level;
 304              		.loc 11 378 9 is_stmt 1 view .LVU58
 378:chnl.cpp      ****         float in_r = IN_R[i] * in_level;
 305              		.loc 11 378 15 is_stmt 0 view .LVU59
 306 0034 F6EE006A 		vmov.f32	s13, #5.0e-1
 307              		.loc 11 382 9 view .LVU60
 308 0038 0328     		cmp	r0, #3
 309 003a 4FEA8401 		lsl	r1, r4, #2
 379:chnl.cpp      **** 
 310              		.loc 11 379 28 view .LVU61
 311 003e DBE90023 		ldrd	r2, r3, [fp]
 378:chnl.cpp      ****         float in_r = IN_R[i] * in_level;
 312              		.loc 11 378 28 view .LVU62
 313 0042 02EB8402 		add	r2, r2, r4, lsl #2
 379:chnl.cpp      **** 
 314              		.loc 11 379 28 view .LVU63
 315 0046 03EB8403 		add	r3, r3, r4, lsl #2
 378:chnl.cpp      ****         float in_r = IN_R[i] * in_level;
 316              		.loc 11 378 15 view .LVU64
 317 004a 92ED007A 		vldr.32	s14, [r2]
 379:chnl.cpp      **** 
 318              		.loc 11 379 15 view .LVU65
 319 004e D3ED007A 		vldr.32	s15, [r3]
 378:chnl.cpp      ****         float in_r = IN_R[i] * in_level;
 320              		.loc 11 378 15 view .LVU66
 321 0052 27EE267A 		vmul.f32	s14, s14, s13
 322              	.LVL13:
 379:chnl.cpp      **** 
 323              		.loc 11 379 9 is_stmt 1 view .LVU67
 379:chnl.cpp      **** 
 324              		.loc 11 379 15 is_stmt 0 view .LVU68
 325 0056 67EEA67A 		vmul.f32	s15, s15, s13
 326              	.LVL14:
 327              		.loc 11 382 9 is_stmt 1 view .LVU69
 328 005a 3DD0     		beq	.L21
 329              	.L25:
 383:chnl.cpp      ****             buffer[currentPosition][0] = in_l;
 384:chnl.cpp      ****             buffer[currentPosition][1] = in_r;
 385:chnl.cpp      ****         }
 386:chnl.cpp      **** 
 387:chnl.cpp      ****         // Play back the audio from the current position in the buffer
 388:chnl.cpp      ****         OUT_L[i] = buffer[currentPosition][0] * loop_level + in_l;
 330              		.loc 11 388 45 is_stmt 0 view .LVU70
 331 005c 2A68     		ldr	r2, [r5]
 332 005e D000     		lsls	r0, r2, #3
 333              	.L23:
 334              		.loc 11 388 9 is_stmt 1 discriminator 2 view .LVU71
 335              		.loc 11 388 45 is_stmt 0 discriminator 2 view .LVU72
ARM GAS  /var/folders/9w/sxkx3zpj5vdcb536f5jvsqpc0000gn/T//ccNfV2cP.s 			page 26


 336 0060 3844     		add	r0, r0, r7
 337              		.loc 11 388 18 discriminator 2 view .LVU73
 338 0062 DAF80030 		ldr	r3, [r10]
 389:chnl.cpp      ****         OUT_R[i] = buffer[currentPosition][1] * loop_level + in_r;
 390:chnl.cpp      **** 
 391:chnl.cpp      ****         // Increment the current position, wrapping around to the start of the loop if necessary
 392:chnl.cpp      ****         currentPosition = (currentPosition + 1) % loopLengthSamples;
 339              		.loc 11 392 49 discriminator 2 view .LVU74
 340 0066 D9F800C0 		ldr	ip, [r9]
 341              		.loc 11 392 44 discriminator 2 view .LVU75
 342 006a 0132     		adds	r2, r2, #1
 388:chnl.cpp      ****         OUT_R[i] = buffer[currentPosition][1] * loop_level + in_r;
 343              		.loc 11 388 60 discriminator 2 view .LVU76
 344 006c D0ED006A 		vldr.32	s13, [r0]
 388:chnl.cpp      ****         OUT_R[i] = buffer[currentPosition][1] * loop_level + in_r;
 345              		.loc 11 388 18 discriminator 2 view .LVU77
 346 0070 0B44     		add	r3, r3, r1
 347              	.LBE484:
 352:chnl.cpp      ****         if (metro.Process()) {
 348              		.loc 11 352 5 discriminator 2 view .LVU78
 349 0072 0134     		adds	r4, r4, #1
 350              	.LVL15:
 351              	.LBB499:
 388:chnl.cpp      ****         OUT_R[i] = buffer[currentPosition][1] * loop_level + in_r;
 352              		.loc 11 388 60 discriminator 2 view .LVU79
 353 0074 36EE877A 		vadd.f32	s14, s13, s14
 354              	.LVL16:
 388:chnl.cpp      ****         OUT_R[i] = buffer[currentPosition][1] * loop_level + in_r;
 355              		.loc 11 388 60 discriminator 2 view .LVU80
 356              	.LBE499:
 352:chnl.cpp      ****         if (metro.Process()) {
 357              		.loc 11 352 26 discriminator 2 view .LVU81
 358 0078 A642     		cmp	r6, r4
 359              	.LBB500:
 388:chnl.cpp      ****         OUT_R[i] = buffer[currentPosition][1] * loop_level + in_r;
 360              		.loc 11 388 18 discriminator 2 view .LVU82
 361 007a 83ED007A 		vstr.32	s14, [r3]
 389:chnl.cpp      ****         OUT_R[i] = buffer[currentPosition][1] * loop_level + in_r;
 362              		.loc 11 389 9 is_stmt 1 discriminator 2 view .LVU83
 389:chnl.cpp      ****         OUT_R[i] = buffer[currentPosition][1] * loop_level + in_r;
 363              		.loc 11 389 60 is_stmt 0 discriminator 2 view .LVU84
 364 007e 90ED017A 		vldr.32	s14, [r0, #4]
 389:chnl.cpp      ****         OUT_R[i] = buffer[currentPosition][1] * loop_level + in_r;
 365              		.loc 11 389 18 discriminator 2 view .LVU85
 366 0082 DAF80430 		ldr	r3, [r10, #4]
 389:chnl.cpp      ****         OUT_R[i] = buffer[currentPosition][1] * loop_level + in_r;
 367              		.loc 11 389 60 discriminator 2 view .LVU86
 368 0086 77EE277A 		vadd.f32	s15, s14, s15
 369              	.LVL17:
 389:chnl.cpp      ****         OUT_R[i] = buffer[currentPosition][1] * loop_level + in_r;
 370              		.loc 11 389 18 discriminator 2 view .LVU87
 371 008a 0B44     		add	r3, r3, r1
 372              		.loc 11 392 49 discriminator 2 view .LVU88
 373 008c B2FBFCF0 		udiv	r0, r2, ip
 374 0090 0CFB1022 		mls	r2, ip, r0, r2
 389:chnl.cpp      ****         OUT_R[i] = buffer[currentPosition][1] * loop_level + in_r;
 375              		.loc 11 389 18 discriminator 2 view .LVU89
ARM GAS  /var/folders/9w/sxkx3zpj5vdcb536f5jvsqpc0000gn/T//ccNfV2cP.s 			page 27


 376 0094 C3ED007A 		vstr.32	s15, [r3]
 377              		.loc 11 392 9 is_stmt 1 discriminator 2 view .LVU90
 378              		.loc 11 392 25 is_stmt 0 discriminator 2 view .LVU91
 379 0098 2A60     		str	r2, [r5]
 380              	.LBE500:
 352:chnl.cpp      ****         if (metro.Process()) {
 381              		.loc 11 352 5 is_stmt 1 discriminator 2 view .LVU92
 382              	.LVL18:
 352:chnl.cpp      ****         if (metro.Process()) {
 383              		.loc 11 352 26 discriminator 2 view .LVU93
 384 009a 47D0     		beq	.L36
 385              	.LVL19:
 386              	.L12:
 387              	.LBB501:
 353:chnl.cpp      ****             if (count < loopLengthPulses) {
 388              		.loc 11 353 9 view .LVU94
 353:chnl.cpp      ****             if (count < loopLengthPulses) {
 389              		.loc 11 353 26 is_stmt 0 view .LVU95
 390 009c 3B48     		ldr	r0, .L39+16
 391 009e FFF7FEFF 		bl	_ZN7daisysp5Metro7ProcessEv
 392              	.LVL20:
 353:chnl.cpp      ****             if (count < loopLengthPulses) {
 393              		.loc 11 353 9 view .LVU96
 394 00a2 0028     		cmp	r0, #0
 395 00a4 BCD1     		bne	.L37
 382:chnl.cpp      ****             buffer[currentPosition][0] = in_l;
 396              		.loc 11 382 19 view .LVU97
 397 00a6 98F80000 		ldrb	r0, [r8]	@ zero_extendqisi2
 398 00aa C3E7     		b	.L15
 399              	.L16:
 363:chnl.cpp      ****                         state = LooperState::Recording;
 400              		.loc 11 363 21 is_stmt 1 view .LVU98
 364:chnl.cpp      ****                         break;
 401              		.loc 11 364 25 view .LVU99
 378:chnl.cpp      ****         float in_r = IN_R[i] * in_level;
 402              		.loc 11 378 28 is_stmt 0 view .LVU100
 403 00ac DBF80030 		ldr	r3, [fp]
 378:chnl.cpp      ****         float in_r = IN_R[i] * in_level;
 404              		.loc 11 378 15 view .LVU101
 405 00b0 F6EE006A 		vmov.f32	s13, #5.0e-1
 406 00b4 A100     		lsls	r1, r4, #2
 378:chnl.cpp      ****         float in_r = IN_R[i] * in_level;
 407              		.loc 11 378 28 view .LVU102
 408 00b6 03EB8403 		add	r3, r3, r4, lsl #2
 378:chnl.cpp      ****         float in_r = IN_R[i] * in_level;
 409              		.loc 11 378 15 view .LVU103
 410 00ba 93ED007A 		vldr.32	s14, [r3]
 379:chnl.cpp      **** 
 411              		.loc 11 379 28 view .LVU104
 412 00be DBF80430 		ldr	r3, [fp, #4]
 378:chnl.cpp      ****         float in_r = IN_R[i] * in_level;
 413              		.loc 11 378 15 view .LVU105
 414 00c2 27EE267A 		vmul.f32	s14, s14, s13
 379:chnl.cpp      **** 
 415              		.loc 11 379 28 view .LVU106
 416 00c6 03EB8403 		add	r3, r3, r4, lsl #2
 379:chnl.cpp      **** 
ARM GAS  /var/folders/9w/sxkx3zpj5vdcb536f5jvsqpc0000gn/T//ccNfV2cP.s 			page 28


 417              		.loc 11 379 15 view .LVU107
 418 00ca D3ED007A 		vldr.32	s15, [r3]
 364:chnl.cpp      ****                         break;
 419              		.loc 11 364 31 view .LVU108
 420 00ce 0323     		movs	r3, #3
 379:chnl.cpp      **** 
 421              		.loc 11 379 15 view .LVU109
 422 00d0 67EEA67A 		vmul.f32	s15, s15, s13
 364:chnl.cpp      ****                         break;
 423              		.loc 11 364 31 view .LVU110
 424 00d4 88F80030 		strb	r3, [r8]
 365:chnl.cpp      ****                     case LooperState::PendingClear:
 425              		.loc 11 365 25 is_stmt 1 view .LVU111
 378:chnl.cpp      ****         float in_r = IN_R[i] * in_level;
 426              		.loc 11 378 9 view .LVU112
 427              	.LVL21:
 379:chnl.cpp      **** 
 428              		.loc 11 379 9 view .LVU113
 382:chnl.cpp      ****             buffer[currentPosition][0] = in_l;
 429              		.loc 11 382 9 view .LVU114
 430              	.L21:
 383:chnl.cpp      ****             buffer[currentPosition][1] = in_r;
 431              		.loc 11 383 13 view .LVU115
 383:chnl.cpp      ****             buffer[currentPosition][1] = in_r;
 432              		.loc 11 383 38 is_stmt 0 view .LVU116
 433 00d8 2A68     		ldr	r2, [r5]
 383:chnl.cpp      ****             buffer[currentPosition][1] = in_r;
 434              		.loc 11 383 40 view .LVU117
 435 00da 07EBC203 		add	r3, r7, r2, lsl #3
 436 00de D000     		lsls	r0, r2, #3
 437 00e0 83ED007A 		vstr.32	s14, [r3]
 384:chnl.cpp      ****         }
 438              		.loc 11 384 13 is_stmt 1 view .LVU118
 384:chnl.cpp      ****         }
 439              		.loc 11 384 40 is_stmt 0 view .LVU119
 440 00e4 C3ED017A 		vstr.32	s15, [r3, #4]
 441 00e8 BAE7     		b	.L23
 442              	.LVL22:
 443              	.L14:
 357:chnl.cpp      ****                 count = 1;
 444              		.loc 11 357 17 is_stmt 1 view .LVU120
 445              	.LBB485:
 446              	.LBI485:
 205:./libDaisy//src/daisy_patch_sm.h ****         {
 447              		.loc 3 205 21 view .LVU121
 448              	.LBB486:
 449              		.loc 3 207 27 is_stmt 0 view .LVU122
 450 00ea 2948     		ldr	r0, .L39+20
 451 00ec FFF7FEFF 		bl	_ZN5daisy6LoggerILNS_17LoggerDestinationE1EE9PrintLineEPKcz
 452              	.LVL23:
 453              		.loc 3 207 27 view .LVU123
 454              	.LBE486:
 455              	.LBE485:
 358:chnl.cpp      ****                 switch (state) {
 456              		.loc 11 358 17 is_stmt 1 view .LVU124
 358:chnl.cpp      ****                 switch (state) {
 457              		.loc 11 358 23 is_stmt 0 view .LVU125
ARM GAS  /var/folders/9w/sxkx3zpj5vdcb536f5jvsqpc0000gn/T//ccNfV2cP.s 			page 29


 458 00f0 0123     		movs	r3, #1
 459 00f2 244A     		ldr	r2, .L39+8
 460 00f4 1360     		str	r3, [r2]
 359:chnl.cpp      ****                     case LooperState::Recording:
 461              		.loc 11 359 17 is_stmt 1 view .LVU126
 359:chnl.cpp      ****                     case LooperState::Recording:
 462              		.loc 11 359 25 is_stmt 0 view .LVU127
 463 00f6 98F80030 		ldrb	r3, [r8]	@ zero_extendqisi2
 359:chnl.cpp      ****                     case LooperState::Recording:
 464              		.loc 11 359 17 view .LVU128
 465 00fa 012B     		cmp	r3, #1
 466 00fc D6D0     		beq	.L16
 467 00fe 032B     		cmp	r3, #3
 468 0100 36D0     		beq	.L17
 469 0102 ABB1     		cbz	r3, .L38
 378:chnl.cpp      ****         float in_r = IN_R[i] * in_level;
 470              		.loc 11 378 9 is_stmt 1 view .LVU129
 378:chnl.cpp      ****         float in_r = IN_R[i] * in_level;
 471              		.loc 11 378 28 is_stmt 0 view .LVU130
 472 0104 DBF80030 		ldr	r3, [fp]
 378:chnl.cpp      ****         float in_r = IN_R[i] * in_level;
 473              		.loc 11 378 15 view .LVU131
 474 0108 F6EE006A 		vmov.f32	s13, #5.0e-1
 475 010c A100     		lsls	r1, r4, #2
 378:chnl.cpp      ****         float in_r = IN_R[i] * in_level;
 476              		.loc 11 378 28 view .LVU132
 477 010e 03EB8403 		add	r3, r3, r4, lsl #2
 378:chnl.cpp      ****         float in_r = IN_R[i] * in_level;
 478              		.loc 11 378 15 view .LVU133
 479 0112 93ED007A 		vldr.32	s14, [r3]
 379:chnl.cpp      **** 
 480              		.loc 11 379 28 view .LVU134
 481 0116 DBF80430 		ldr	r3, [fp, #4]
 378:chnl.cpp      ****         float in_r = IN_R[i] * in_level;
 482              		.loc 11 378 15 view .LVU135
 483 011a 27EE267A 		vmul.f32	s14, s14, s13
 484              	.LVL24:
 379:chnl.cpp      **** 
 485              		.loc 11 379 9 is_stmt 1 view .LVU136
 379:chnl.cpp      **** 
 486              		.loc 11 379 28 is_stmt 0 view .LVU137
 487 011e 03EB8403 		add	r3, r3, r4, lsl #2
 379:chnl.cpp      **** 
 488              		.loc 11 379 15 view .LVU138
 489 0122 D3ED007A 		vldr.32	s15, [r3]
 490 0126 67EEA67A 		vmul.f32	s15, s15, s13
 491              	.LVL25:
 382:chnl.cpp      ****             buffer[currentPosition][0] = in_l;
 492              		.loc 11 382 9 is_stmt 1 view .LVU139
 493 012a 97E7     		b	.L25
 494              	.LVL26:
 495              	.L36:
 382:chnl.cpp      ****             buffer[currentPosition][0] = in_l;
 496              		.loc 11 382 9 is_stmt 0 view .LVU140
 497              	.LBE501:
 498              	.LBE503:
 393:chnl.cpp      ****     }
ARM GAS  /var/folders/9w/sxkx3zpj5vdcb536f5jvsqpc0000gn/T//ccNfV2cP.s 			page 30


 394:chnl.cpp      **** }
 499              		.loc 11 394 1 view .LVU141
 500 012c BDE8F88F 		pop	{r3, r4, r5, r6, r7, r8, r9, r10, fp, pc}
 501              	.LVL27:
 502              	.L38:
 503              	.LBB504:
 504              	.LBB502:
 366:chnl.cpp      ****                         state = LooperState::Standby;
 505              		.loc 11 366 21 is_stmt 1 view .LVU142
 367:chnl.cpp      ****                         ResetBuffer();
 506              		.loc 11 367 25 view .LVU143
 367:chnl.cpp      ****                         ResetBuffer();
 507              		.loc 11 367 31 is_stmt 0 view .LVU144
 508 0130 0423     		movs	r3, #4
 509 0132 1849     		ldr	r1, .L39+24
 510 0134 88F80030 		strb	r3, [r8]
 368:chnl.cpp      ****                         break;
 511              		.loc 11 368 25 is_stmt 1 view .LVU145
 512              	.LBB487:
 513              	.LBI487:
 176:chnl.cpp      ****     // Init buffer by filling with zeros.
 514              		.loc 11 176 6 view .LVU146
 515              	.LBB488:
 179:chnl.cpp      **** }
 516              		.loc 11 179 5 view .LVU147
 517              	.LVL28:
 518              	.LBB489:
 519              	.LBI489:
 520              		.file 12 "/Library/DaisyToolchain/0.2.0/arm/arm-none-eabi/include/c++/10.3.1/bits/stl_algobase.h"
   1:/Library/DaisyToolchain/0.2.0/arm/arm-none-eabi/include/c++/10.3.1/bits/stl_algobase.h **** // Core algorithmic facilities -*- C++ -*-
   2:/Library/DaisyToolchain/0.2.0/arm/arm-none-eabi/include/c++/10.3.1/bits/stl_algobase.h **** 
   3:/Library/DaisyToolchain/0.2.0/arm/arm-none-eabi/include/c++/10.3.1/bits/stl_algobase.h **** // Copyright (C) 2001-2020 Free Software Foundation, Inc.
   4:/Library/DaisyToolchain/0.2.0/arm/arm-none-eabi/include/c++/10.3.1/bits/stl_algobase.h **** //
   5:/Library/DaisyToolchain/0.2.0/arm/arm-none-eabi/include/c++/10.3.1/bits/stl_algobase.h **** // This file is part of the GNU ISO C++ Library.  This library is free
   6:/Library/DaisyToolchain/0.2.0/arm/arm-none-eabi/include/c++/10.3.1/bits/stl_algobase.h **** // software; you can redistribute it and/or modify it under the
   7:/Library/DaisyToolchain/0.2.0/arm/arm-none-eabi/include/c++/10.3.1/bits/stl_algobase.h **** // terms of the GNU General Public License as published by the
   8:/Library/DaisyToolchain/0.2.0/arm/arm-none-eabi/include/c++/10.3.1/bits/stl_algobase.h **** // Free Software Foundation; either version 3, or (at your option)
   9:/Library/DaisyToolchain/0.2.0/arm/arm-none-eabi/include/c++/10.3.1/bits/stl_algobase.h **** // any later version.
  10:/Library/DaisyToolchain/0.2.0/arm/arm-none-eabi/include/c++/10.3.1/bits/stl_algobase.h **** 
  11:/Library/DaisyToolchain/0.2.0/arm/arm-none-eabi/include/c++/10.3.1/bits/stl_algobase.h **** // This library is distributed in the hope that it will be useful,
  12:/Library/DaisyToolchain/0.2.0/arm/arm-none-eabi/include/c++/10.3.1/bits/stl_algobase.h **** // but WITHOUT ANY WARRANTY; without even the implied warranty of
  13:/Library/DaisyToolchain/0.2.0/arm/arm-none-eabi/include/c++/10.3.1/bits/stl_algobase.h **** // MERCHANTABILITY or FITNESS FOR A PARTICULAR PURPOSE.  See the
  14:/Library/DaisyToolchain/0.2.0/arm/arm-none-eabi/include/c++/10.3.1/bits/stl_algobase.h **** // GNU General Public License for more details.
  15:/Library/DaisyToolchain/0.2.0/arm/arm-none-eabi/include/c++/10.3.1/bits/stl_algobase.h **** 
  16:/Library/DaisyToolchain/0.2.0/arm/arm-none-eabi/include/c++/10.3.1/bits/stl_algobase.h **** // Under Section 7 of GPL version 3, you are granted additional
  17:/Library/DaisyToolchain/0.2.0/arm/arm-none-eabi/include/c++/10.3.1/bits/stl_algobase.h **** // permissions described in the GCC Runtime Library Exception, version
  18:/Library/DaisyToolchain/0.2.0/arm/arm-none-eabi/include/c++/10.3.1/bits/stl_algobase.h **** // 3.1, as published by the Free Software Foundation.
  19:/Library/DaisyToolchain/0.2.0/arm/arm-none-eabi/include/c++/10.3.1/bits/stl_algobase.h **** 
  20:/Library/DaisyToolchain/0.2.0/arm/arm-none-eabi/include/c++/10.3.1/bits/stl_algobase.h **** // You should have received a copy of the GNU General Public License and
  21:/Library/DaisyToolchain/0.2.0/arm/arm-none-eabi/include/c++/10.3.1/bits/stl_algobase.h **** // a copy of the GCC Runtime Library Exception along with this program;
  22:/Library/DaisyToolchain/0.2.0/arm/arm-none-eabi/include/c++/10.3.1/bits/stl_algobase.h **** // see the files COPYING3 and COPYING.RUNTIME respectively.  If not, see
  23:/Library/DaisyToolchain/0.2.0/arm/arm-none-eabi/include/c++/10.3.1/bits/stl_algobase.h **** // <http://www.gnu.org/licenses/>.
  24:/Library/DaisyToolchain/0.2.0/arm/arm-none-eabi/include/c++/10.3.1/bits/stl_algobase.h **** 
  25:/Library/DaisyToolchain/0.2.0/arm/arm-none-eabi/include/c++/10.3.1/bits/stl_algobase.h **** /*
  26:/Library/DaisyToolchain/0.2.0/arm/arm-none-eabi/include/c++/10.3.1/bits/stl_algobase.h ****  *
  27:/Library/DaisyToolchain/0.2.0/arm/arm-none-eabi/include/c++/10.3.1/bits/stl_algobase.h ****  * Copyright (c) 1994
  28:/Library/DaisyToolchain/0.2.0/arm/arm-none-eabi/include/c++/10.3.1/bits/stl_algobase.h ****  * Hewlett-Packard Company
ARM GAS  /var/folders/9w/sxkx3zpj5vdcb536f5jvsqpc0000gn/T//ccNfV2cP.s 			page 31


  29:/Library/DaisyToolchain/0.2.0/arm/arm-none-eabi/include/c++/10.3.1/bits/stl_algobase.h ****  *
  30:/Library/DaisyToolchain/0.2.0/arm/arm-none-eabi/include/c++/10.3.1/bits/stl_algobase.h ****  * Permission to use, copy, modify, distribute and sell this software
  31:/Library/DaisyToolchain/0.2.0/arm/arm-none-eabi/include/c++/10.3.1/bits/stl_algobase.h ****  * and its documentation for any purpose is hereby granted without fee,
  32:/Library/DaisyToolchain/0.2.0/arm/arm-none-eabi/include/c++/10.3.1/bits/stl_algobase.h ****  * provided that the above copyright notice appear in all copies and
  33:/Library/DaisyToolchain/0.2.0/arm/arm-none-eabi/include/c++/10.3.1/bits/stl_algobase.h ****  * that both that copyright notice and this permission notice appear
  34:/Library/DaisyToolchain/0.2.0/arm/arm-none-eabi/include/c++/10.3.1/bits/stl_algobase.h ****  * in supporting documentation.  Hewlett-Packard Company makes no
  35:/Library/DaisyToolchain/0.2.0/arm/arm-none-eabi/include/c++/10.3.1/bits/stl_algobase.h ****  * representations about the suitability of this software for any
  36:/Library/DaisyToolchain/0.2.0/arm/arm-none-eabi/include/c++/10.3.1/bits/stl_algobase.h ****  * purpose.  It is provided "as is" without express or implied warranty.
  37:/Library/DaisyToolchain/0.2.0/arm/arm-none-eabi/include/c++/10.3.1/bits/stl_algobase.h ****  *
  38:/Library/DaisyToolchain/0.2.0/arm/arm-none-eabi/include/c++/10.3.1/bits/stl_algobase.h ****  *
  39:/Library/DaisyToolchain/0.2.0/arm/arm-none-eabi/include/c++/10.3.1/bits/stl_algobase.h ****  * Copyright (c) 1996-1998
  40:/Library/DaisyToolchain/0.2.0/arm/arm-none-eabi/include/c++/10.3.1/bits/stl_algobase.h ****  * Silicon Graphics Computer Systems, Inc.
  41:/Library/DaisyToolchain/0.2.0/arm/arm-none-eabi/include/c++/10.3.1/bits/stl_algobase.h ****  *
  42:/Library/DaisyToolchain/0.2.0/arm/arm-none-eabi/include/c++/10.3.1/bits/stl_algobase.h ****  * Permission to use, copy, modify, distribute and sell this software
  43:/Library/DaisyToolchain/0.2.0/arm/arm-none-eabi/include/c++/10.3.1/bits/stl_algobase.h ****  * and its documentation for any purpose is hereby granted without fee,
  44:/Library/DaisyToolchain/0.2.0/arm/arm-none-eabi/include/c++/10.3.1/bits/stl_algobase.h ****  * provided that the above copyright notice appear in all copies and
  45:/Library/DaisyToolchain/0.2.0/arm/arm-none-eabi/include/c++/10.3.1/bits/stl_algobase.h ****  * that both that copyright notice and this permission notice appear
  46:/Library/DaisyToolchain/0.2.0/arm/arm-none-eabi/include/c++/10.3.1/bits/stl_algobase.h ****  * in supporting documentation.  Silicon Graphics makes no
  47:/Library/DaisyToolchain/0.2.0/arm/arm-none-eabi/include/c++/10.3.1/bits/stl_algobase.h ****  * representations about the suitability of this software for any
  48:/Library/DaisyToolchain/0.2.0/arm/arm-none-eabi/include/c++/10.3.1/bits/stl_algobase.h ****  * purpose.  It is provided "as is" without express or implied warranty.
  49:/Library/DaisyToolchain/0.2.0/arm/arm-none-eabi/include/c++/10.3.1/bits/stl_algobase.h ****  */
  50:/Library/DaisyToolchain/0.2.0/arm/arm-none-eabi/include/c++/10.3.1/bits/stl_algobase.h **** 
  51:/Library/DaisyToolchain/0.2.0/arm/arm-none-eabi/include/c++/10.3.1/bits/stl_algobase.h **** /** @file bits/stl_algobase.h
  52:/Library/DaisyToolchain/0.2.0/arm/arm-none-eabi/include/c++/10.3.1/bits/stl_algobase.h ****  *  This is an internal header file, included by other library headers.
  53:/Library/DaisyToolchain/0.2.0/arm/arm-none-eabi/include/c++/10.3.1/bits/stl_algobase.h ****  *  Do not attempt to use it directly. @headername{algorithm}
  54:/Library/DaisyToolchain/0.2.0/arm/arm-none-eabi/include/c++/10.3.1/bits/stl_algobase.h ****  */
  55:/Library/DaisyToolchain/0.2.0/arm/arm-none-eabi/include/c++/10.3.1/bits/stl_algobase.h **** 
  56:/Library/DaisyToolchain/0.2.0/arm/arm-none-eabi/include/c++/10.3.1/bits/stl_algobase.h **** #ifndef _STL_ALGOBASE_H
  57:/Library/DaisyToolchain/0.2.0/arm/arm-none-eabi/include/c++/10.3.1/bits/stl_algobase.h **** #define _STL_ALGOBASE_H 1
  58:/Library/DaisyToolchain/0.2.0/arm/arm-none-eabi/include/c++/10.3.1/bits/stl_algobase.h **** 
  59:/Library/DaisyToolchain/0.2.0/arm/arm-none-eabi/include/c++/10.3.1/bits/stl_algobase.h **** #include <bits/c++config.h>
  60:/Library/DaisyToolchain/0.2.0/arm/arm-none-eabi/include/c++/10.3.1/bits/stl_algobase.h **** #include <bits/functexcept.h>
  61:/Library/DaisyToolchain/0.2.0/arm/arm-none-eabi/include/c++/10.3.1/bits/stl_algobase.h **** #include <bits/cpp_type_traits.h>
  62:/Library/DaisyToolchain/0.2.0/arm/arm-none-eabi/include/c++/10.3.1/bits/stl_algobase.h **** #include <ext/type_traits.h>
  63:/Library/DaisyToolchain/0.2.0/arm/arm-none-eabi/include/c++/10.3.1/bits/stl_algobase.h **** #include <ext/numeric_traits.h>
  64:/Library/DaisyToolchain/0.2.0/arm/arm-none-eabi/include/c++/10.3.1/bits/stl_algobase.h **** #include <bits/stl_pair.h>
  65:/Library/DaisyToolchain/0.2.0/arm/arm-none-eabi/include/c++/10.3.1/bits/stl_algobase.h **** #include <bits/stl_iterator_base_types.h>
  66:/Library/DaisyToolchain/0.2.0/arm/arm-none-eabi/include/c++/10.3.1/bits/stl_algobase.h **** #include <bits/stl_iterator_base_funcs.h>
  67:/Library/DaisyToolchain/0.2.0/arm/arm-none-eabi/include/c++/10.3.1/bits/stl_algobase.h **** #include <bits/stl_iterator.h>
  68:/Library/DaisyToolchain/0.2.0/arm/arm-none-eabi/include/c++/10.3.1/bits/stl_algobase.h **** #include <bits/concept_check.h>
  69:/Library/DaisyToolchain/0.2.0/arm/arm-none-eabi/include/c++/10.3.1/bits/stl_algobase.h **** #include <debug/debug.h>
  70:/Library/DaisyToolchain/0.2.0/arm/arm-none-eabi/include/c++/10.3.1/bits/stl_algobase.h **** #include <bits/move.h> // For std::swap
  71:/Library/DaisyToolchain/0.2.0/arm/arm-none-eabi/include/c++/10.3.1/bits/stl_algobase.h **** #include <bits/predefined_ops.h>
  72:/Library/DaisyToolchain/0.2.0/arm/arm-none-eabi/include/c++/10.3.1/bits/stl_algobase.h **** #if __cplusplus >= 201103L
  73:/Library/DaisyToolchain/0.2.0/arm/arm-none-eabi/include/c++/10.3.1/bits/stl_algobase.h **** # include <type_traits>
  74:/Library/DaisyToolchain/0.2.0/arm/arm-none-eabi/include/c++/10.3.1/bits/stl_algobase.h **** #endif
  75:/Library/DaisyToolchain/0.2.0/arm/arm-none-eabi/include/c++/10.3.1/bits/stl_algobase.h **** #if __cplusplus > 201703L
  76:/Library/DaisyToolchain/0.2.0/arm/arm-none-eabi/include/c++/10.3.1/bits/stl_algobase.h **** # include <compare>
  77:/Library/DaisyToolchain/0.2.0/arm/arm-none-eabi/include/c++/10.3.1/bits/stl_algobase.h **** #endif
  78:/Library/DaisyToolchain/0.2.0/arm/arm-none-eabi/include/c++/10.3.1/bits/stl_algobase.h **** 
  79:/Library/DaisyToolchain/0.2.0/arm/arm-none-eabi/include/c++/10.3.1/bits/stl_algobase.h **** namespace std _GLIBCXX_VISIBILITY(default)
  80:/Library/DaisyToolchain/0.2.0/arm/arm-none-eabi/include/c++/10.3.1/bits/stl_algobase.h **** {
  81:/Library/DaisyToolchain/0.2.0/arm/arm-none-eabi/include/c++/10.3.1/bits/stl_algobase.h **** _GLIBCXX_BEGIN_NAMESPACE_VERSION
  82:/Library/DaisyToolchain/0.2.0/arm/arm-none-eabi/include/c++/10.3.1/bits/stl_algobase.h **** 
  83:/Library/DaisyToolchain/0.2.0/arm/arm-none-eabi/include/c++/10.3.1/bits/stl_algobase.h ****   /*
  84:/Library/DaisyToolchain/0.2.0/arm/arm-none-eabi/include/c++/10.3.1/bits/stl_algobase.h ****    * A constexpr wrapper for __builtin_memcmp.
  85:/Library/DaisyToolchain/0.2.0/arm/arm-none-eabi/include/c++/10.3.1/bits/stl_algobase.h ****    * @param __num The number of elements of type _Tp (not bytes).
ARM GAS  /var/folders/9w/sxkx3zpj5vdcb536f5jvsqpc0000gn/T//ccNfV2cP.s 			page 32


  86:/Library/DaisyToolchain/0.2.0/arm/arm-none-eabi/include/c++/10.3.1/bits/stl_algobase.h ****    */
  87:/Library/DaisyToolchain/0.2.0/arm/arm-none-eabi/include/c++/10.3.1/bits/stl_algobase.h ****   template<typename _Tp, typename _Up>
  88:/Library/DaisyToolchain/0.2.0/arm/arm-none-eabi/include/c++/10.3.1/bits/stl_algobase.h ****     _GLIBCXX14_CONSTEXPR
  89:/Library/DaisyToolchain/0.2.0/arm/arm-none-eabi/include/c++/10.3.1/bits/stl_algobase.h ****     inline int
  90:/Library/DaisyToolchain/0.2.0/arm/arm-none-eabi/include/c++/10.3.1/bits/stl_algobase.h ****     __memcmp(const _Tp* __first1, const _Up* __first2, size_t __num)
  91:/Library/DaisyToolchain/0.2.0/arm/arm-none-eabi/include/c++/10.3.1/bits/stl_algobase.h ****     {
  92:/Library/DaisyToolchain/0.2.0/arm/arm-none-eabi/include/c++/10.3.1/bits/stl_algobase.h **** #if __cplusplus >= 201103L
  93:/Library/DaisyToolchain/0.2.0/arm/arm-none-eabi/include/c++/10.3.1/bits/stl_algobase.h ****       static_assert(sizeof(_Tp) == sizeof(_Up), "can be compared with memcmp");
  94:/Library/DaisyToolchain/0.2.0/arm/arm-none-eabi/include/c++/10.3.1/bits/stl_algobase.h **** #endif
  95:/Library/DaisyToolchain/0.2.0/arm/arm-none-eabi/include/c++/10.3.1/bits/stl_algobase.h **** #ifdef __cpp_lib_is_constant_evaluated
  96:/Library/DaisyToolchain/0.2.0/arm/arm-none-eabi/include/c++/10.3.1/bits/stl_algobase.h ****       if (std::is_constant_evaluated())
  97:/Library/DaisyToolchain/0.2.0/arm/arm-none-eabi/include/c++/10.3.1/bits/stl_algobase.h **** 	{
  98:/Library/DaisyToolchain/0.2.0/arm/arm-none-eabi/include/c++/10.3.1/bits/stl_algobase.h **** 	  for(; __num > 0; ++__first1, ++__first2, --__num)
  99:/Library/DaisyToolchain/0.2.0/arm/arm-none-eabi/include/c++/10.3.1/bits/stl_algobase.h **** 	    if (*__first1 != *__first2)
 100:/Library/DaisyToolchain/0.2.0/arm/arm-none-eabi/include/c++/10.3.1/bits/stl_algobase.h **** 	      return *__first1 < *__first2 ? -1 : 1;
 101:/Library/DaisyToolchain/0.2.0/arm/arm-none-eabi/include/c++/10.3.1/bits/stl_algobase.h **** 	  return 0;
 102:/Library/DaisyToolchain/0.2.0/arm/arm-none-eabi/include/c++/10.3.1/bits/stl_algobase.h **** 	}
 103:/Library/DaisyToolchain/0.2.0/arm/arm-none-eabi/include/c++/10.3.1/bits/stl_algobase.h ****       else
 104:/Library/DaisyToolchain/0.2.0/arm/arm-none-eabi/include/c++/10.3.1/bits/stl_algobase.h **** #endif
 105:/Library/DaisyToolchain/0.2.0/arm/arm-none-eabi/include/c++/10.3.1/bits/stl_algobase.h **** 	return __builtin_memcmp(__first1, __first2, sizeof(_Tp) * __num);
 106:/Library/DaisyToolchain/0.2.0/arm/arm-none-eabi/include/c++/10.3.1/bits/stl_algobase.h ****     }
 107:/Library/DaisyToolchain/0.2.0/arm/arm-none-eabi/include/c++/10.3.1/bits/stl_algobase.h **** 
 108:/Library/DaisyToolchain/0.2.0/arm/arm-none-eabi/include/c++/10.3.1/bits/stl_algobase.h **** #if __cplusplus < 201103L
 109:/Library/DaisyToolchain/0.2.0/arm/arm-none-eabi/include/c++/10.3.1/bits/stl_algobase.h ****   // See http://gcc.gnu.org/ml/libstdc++/2004-08/msg00167.html: in a
 110:/Library/DaisyToolchain/0.2.0/arm/arm-none-eabi/include/c++/10.3.1/bits/stl_algobase.h ****   // nutshell, we are partially implementing the resolution of DR 187,
 111:/Library/DaisyToolchain/0.2.0/arm/arm-none-eabi/include/c++/10.3.1/bits/stl_algobase.h ****   // when it's safe, i.e., the value_types are equal.
 112:/Library/DaisyToolchain/0.2.0/arm/arm-none-eabi/include/c++/10.3.1/bits/stl_algobase.h ****   template<bool _BoolType>
 113:/Library/DaisyToolchain/0.2.0/arm/arm-none-eabi/include/c++/10.3.1/bits/stl_algobase.h ****     struct __iter_swap
 114:/Library/DaisyToolchain/0.2.0/arm/arm-none-eabi/include/c++/10.3.1/bits/stl_algobase.h ****     {
 115:/Library/DaisyToolchain/0.2.0/arm/arm-none-eabi/include/c++/10.3.1/bits/stl_algobase.h ****       template<typename _ForwardIterator1, typename _ForwardIterator2>
 116:/Library/DaisyToolchain/0.2.0/arm/arm-none-eabi/include/c++/10.3.1/bits/stl_algobase.h **** 	static void
 117:/Library/DaisyToolchain/0.2.0/arm/arm-none-eabi/include/c++/10.3.1/bits/stl_algobase.h **** 	iter_swap(_ForwardIterator1 __a, _ForwardIterator2 __b)
 118:/Library/DaisyToolchain/0.2.0/arm/arm-none-eabi/include/c++/10.3.1/bits/stl_algobase.h **** 	{
 119:/Library/DaisyToolchain/0.2.0/arm/arm-none-eabi/include/c++/10.3.1/bits/stl_algobase.h **** 	  typedef typename iterator_traits<_ForwardIterator1>::value_type
 120:/Library/DaisyToolchain/0.2.0/arm/arm-none-eabi/include/c++/10.3.1/bits/stl_algobase.h **** 	    _ValueType1;
 121:/Library/DaisyToolchain/0.2.0/arm/arm-none-eabi/include/c++/10.3.1/bits/stl_algobase.h **** 	  _ValueType1 __tmp = *__a;
 122:/Library/DaisyToolchain/0.2.0/arm/arm-none-eabi/include/c++/10.3.1/bits/stl_algobase.h **** 	  *__a = *__b;
 123:/Library/DaisyToolchain/0.2.0/arm/arm-none-eabi/include/c++/10.3.1/bits/stl_algobase.h **** 	  *__b = __tmp;
 124:/Library/DaisyToolchain/0.2.0/arm/arm-none-eabi/include/c++/10.3.1/bits/stl_algobase.h **** 	}
 125:/Library/DaisyToolchain/0.2.0/arm/arm-none-eabi/include/c++/10.3.1/bits/stl_algobase.h ****     };
 126:/Library/DaisyToolchain/0.2.0/arm/arm-none-eabi/include/c++/10.3.1/bits/stl_algobase.h **** 
 127:/Library/DaisyToolchain/0.2.0/arm/arm-none-eabi/include/c++/10.3.1/bits/stl_algobase.h ****   template<>
 128:/Library/DaisyToolchain/0.2.0/arm/arm-none-eabi/include/c++/10.3.1/bits/stl_algobase.h ****     struct __iter_swap<true>
 129:/Library/DaisyToolchain/0.2.0/arm/arm-none-eabi/include/c++/10.3.1/bits/stl_algobase.h ****     {
 130:/Library/DaisyToolchain/0.2.0/arm/arm-none-eabi/include/c++/10.3.1/bits/stl_algobase.h ****       template<typename _ForwardIterator1, typename _ForwardIterator2>
 131:/Library/DaisyToolchain/0.2.0/arm/arm-none-eabi/include/c++/10.3.1/bits/stl_algobase.h **** 	static void
 132:/Library/DaisyToolchain/0.2.0/arm/arm-none-eabi/include/c++/10.3.1/bits/stl_algobase.h **** 	iter_swap(_ForwardIterator1 __a, _ForwardIterator2 __b)
 133:/Library/DaisyToolchain/0.2.0/arm/arm-none-eabi/include/c++/10.3.1/bits/stl_algobase.h **** 	{
 134:/Library/DaisyToolchain/0.2.0/arm/arm-none-eabi/include/c++/10.3.1/bits/stl_algobase.h **** 	  swap(*__a, *__b);
 135:/Library/DaisyToolchain/0.2.0/arm/arm-none-eabi/include/c++/10.3.1/bits/stl_algobase.h **** 	}
 136:/Library/DaisyToolchain/0.2.0/arm/arm-none-eabi/include/c++/10.3.1/bits/stl_algobase.h ****     };
 137:/Library/DaisyToolchain/0.2.0/arm/arm-none-eabi/include/c++/10.3.1/bits/stl_algobase.h **** #endif // C++03
 138:/Library/DaisyToolchain/0.2.0/arm/arm-none-eabi/include/c++/10.3.1/bits/stl_algobase.h **** 
 139:/Library/DaisyToolchain/0.2.0/arm/arm-none-eabi/include/c++/10.3.1/bits/stl_algobase.h ****   /**
 140:/Library/DaisyToolchain/0.2.0/arm/arm-none-eabi/include/c++/10.3.1/bits/stl_algobase.h ****    *  @brief Swaps the contents of two iterators.
 141:/Library/DaisyToolchain/0.2.0/arm/arm-none-eabi/include/c++/10.3.1/bits/stl_algobase.h ****    *  @ingroup mutating_algorithms
 142:/Library/DaisyToolchain/0.2.0/arm/arm-none-eabi/include/c++/10.3.1/bits/stl_algobase.h ****    *  @param  __a  An iterator.
ARM GAS  /var/folders/9w/sxkx3zpj5vdcb536f5jvsqpc0000gn/T//ccNfV2cP.s 			page 33


 143:/Library/DaisyToolchain/0.2.0/arm/arm-none-eabi/include/c++/10.3.1/bits/stl_algobase.h ****    *  @param  __b  Another iterator.
 144:/Library/DaisyToolchain/0.2.0/arm/arm-none-eabi/include/c++/10.3.1/bits/stl_algobase.h ****    *  @return   Nothing.
 145:/Library/DaisyToolchain/0.2.0/arm/arm-none-eabi/include/c++/10.3.1/bits/stl_algobase.h ****    *
 146:/Library/DaisyToolchain/0.2.0/arm/arm-none-eabi/include/c++/10.3.1/bits/stl_algobase.h ****    *  This function swaps the values pointed to by two iterators, not the
 147:/Library/DaisyToolchain/0.2.0/arm/arm-none-eabi/include/c++/10.3.1/bits/stl_algobase.h ****    *  iterators themselves.
 148:/Library/DaisyToolchain/0.2.0/arm/arm-none-eabi/include/c++/10.3.1/bits/stl_algobase.h ****   */
 149:/Library/DaisyToolchain/0.2.0/arm/arm-none-eabi/include/c++/10.3.1/bits/stl_algobase.h ****   template<typename _ForwardIterator1, typename _ForwardIterator2>
 150:/Library/DaisyToolchain/0.2.0/arm/arm-none-eabi/include/c++/10.3.1/bits/stl_algobase.h ****     _GLIBCXX20_CONSTEXPR
 151:/Library/DaisyToolchain/0.2.0/arm/arm-none-eabi/include/c++/10.3.1/bits/stl_algobase.h ****     inline void
 152:/Library/DaisyToolchain/0.2.0/arm/arm-none-eabi/include/c++/10.3.1/bits/stl_algobase.h ****     iter_swap(_ForwardIterator1 __a, _ForwardIterator2 __b)
 153:/Library/DaisyToolchain/0.2.0/arm/arm-none-eabi/include/c++/10.3.1/bits/stl_algobase.h ****     {
 154:/Library/DaisyToolchain/0.2.0/arm/arm-none-eabi/include/c++/10.3.1/bits/stl_algobase.h ****       // concept requirements
 155:/Library/DaisyToolchain/0.2.0/arm/arm-none-eabi/include/c++/10.3.1/bits/stl_algobase.h ****       __glibcxx_function_requires(_Mutable_ForwardIteratorConcept<
 156:/Library/DaisyToolchain/0.2.0/arm/arm-none-eabi/include/c++/10.3.1/bits/stl_algobase.h **** 				  _ForwardIterator1>)
 157:/Library/DaisyToolchain/0.2.0/arm/arm-none-eabi/include/c++/10.3.1/bits/stl_algobase.h ****       __glibcxx_function_requires(_Mutable_ForwardIteratorConcept<
 158:/Library/DaisyToolchain/0.2.0/arm/arm-none-eabi/include/c++/10.3.1/bits/stl_algobase.h **** 				  _ForwardIterator2>)
 159:/Library/DaisyToolchain/0.2.0/arm/arm-none-eabi/include/c++/10.3.1/bits/stl_algobase.h **** 
 160:/Library/DaisyToolchain/0.2.0/arm/arm-none-eabi/include/c++/10.3.1/bits/stl_algobase.h **** #if __cplusplus < 201103L
 161:/Library/DaisyToolchain/0.2.0/arm/arm-none-eabi/include/c++/10.3.1/bits/stl_algobase.h ****       typedef typename iterator_traits<_ForwardIterator1>::value_type
 162:/Library/DaisyToolchain/0.2.0/arm/arm-none-eabi/include/c++/10.3.1/bits/stl_algobase.h **** 	_ValueType1;
 163:/Library/DaisyToolchain/0.2.0/arm/arm-none-eabi/include/c++/10.3.1/bits/stl_algobase.h ****       typedef typename iterator_traits<_ForwardIterator2>::value_type
 164:/Library/DaisyToolchain/0.2.0/arm/arm-none-eabi/include/c++/10.3.1/bits/stl_algobase.h **** 	_ValueType2;
 165:/Library/DaisyToolchain/0.2.0/arm/arm-none-eabi/include/c++/10.3.1/bits/stl_algobase.h **** 
 166:/Library/DaisyToolchain/0.2.0/arm/arm-none-eabi/include/c++/10.3.1/bits/stl_algobase.h ****       __glibcxx_function_requires(_ConvertibleConcept<_ValueType1,
 167:/Library/DaisyToolchain/0.2.0/arm/arm-none-eabi/include/c++/10.3.1/bits/stl_algobase.h **** 				  _ValueType2>)
 168:/Library/DaisyToolchain/0.2.0/arm/arm-none-eabi/include/c++/10.3.1/bits/stl_algobase.h ****       __glibcxx_function_requires(_ConvertibleConcept<_ValueType2,
 169:/Library/DaisyToolchain/0.2.0/arm/arm-none-eabi/include/c++/10.3.1/bits/stl_algobase.h **** 				  _ValueType1>)
 170:/Library/DaisyToolchain/0.2.0/arm/arm-none-eabi/include/c++/10.3.1/bits/stl_algobase.h **** 
 171:/Library/DaisyToolchain/0.2.0/arm/arm-none-eabi/include/c++/10.3.1/bits/stl_algobase.h ****       typedef typename iterator_traits<_ForwardIterator1>::reference
 172:/Library/DaisyToolchain/0.2.0/arm/arm-none-eabi/include/c++/10.3.1/bits/stl_algobase.h **** 	_ReferenceType1;
 173:/Library/DaisyToolchain/0.2.0/arm/arm-none-eabi/include/c++/10.3.1/bits/stl_algobase.h ****       typedef typename iterator_traits<_ForwardIterator2>::reference
 174:/Library/DaisyToolchain/0.2.0/arm/arm-none-eabi/include/c++/10.3.1/bits/stl_algobase.h **** 	_ReferenceType2;
 175:/Library/DaisyToolchain/0.2.0/arm/arm-none-eabi/include/c++/10.3.1/bits/stl_algobase.h ****       std::__iter_swap<__are_same<_ValueType1, _ValueType2>::__value
 176:/Library/DaisyToolchain/0.2.0/arm/arm-none-eabi/include/c++/10.3.1/bits/stl_algobase.h **** 	&& __are_same<_ValueType1&, _ReferenceType1>::__value
 177:/Library/DaisyToolchain/0.2.0/arm/arm-none-eabi/include/c++/10.3.1/bits/stl_algobase.h **** 	&& __are_same<_ValueType2&, _ReferenceType2>::__value>::
 178:/Library/DaisyToolchain/0.2.0/arm/arm-none-eabi/include/c++/10.3.1/bits/stl_algobase.h **** 	iter_swap(__a, __b);
 179:/Library/DaisyToolchain/0.2.0/arm/arm-none-eabi/include/c++/10.3.1/bits/stl_algobase.h **** #else
 180:/Library/DaisyToolchain/0.2.0/arm/arm-none-eabi/include/c++/10.3.1/bits/stl_algobase.h ****       // _GLIBCXX_RESOLVE_LIB_DEFECTS
 181:/Library/DaisyToolchain/0.2.0/arm/arm-none-eabi/include/c++/10.3.1/bits/stl_algobase.h ****       // 187. iter_swap underspecified
 182:/Library/DaisyToolchain/0.2.0/arm/arm-none-eabi/include/c++/10.3.1/bits/stl_algobase.h ****       swap(*__a, *__b);
 183:/Library/DaisyToolchain/0.2.0/arm/arm-none-eabi/include/c++/10.3.1/bits/stl_algobase.h **** #endif
 184:/Library/DaisyToolchain/0.2.0/arm/arm-none-eabi/include/c++/10.3.1/bits/stl_algobase.h ****     }
 185:/Library/DaisyToolchain/0.2.0/arm/arm-none-eabi/include/c++/10.3.1/bits/stl_algobase.h **** 
 186:/Library/DaisyToolchain/0.2.0/arm/arm-none-eabi/include/c++/10.3.1/bits/stl_algobase.h ****   /**
 187:/Library/DaisyToolchain/0.2.0/arm/arm-none-eabi/include/c++/10.3.1/bits/stl_algobase.h ****    *  @brief Swap the elements of two sequences.
 188:/Library/DaisyToolchain/0.2.0/arm/arm-none-eabi/include/c++/10.3.1/bits/stl_algobase.h ****    *  @ingroup mutating_algorithms
 189:/Library/DaisyToolchain/0.2.0/arm/arm-none-eabi/include/c++/10.3.1/bits/stl_algobase.h ****    *  @param  __first1  A forward iterator.
 190:/Library/DaisyToolchain/0.2.0/arm/arm-none-eabi/include/c++/10.3.1/bits/stl_algobase.h ****    *  @param  __last1   A forward iterator.
 191:/Library/DaisyToolchain/0.2.0/arm/arm-none-eabi/include/c++/10.3.1/bits/stl_algobase.h ****    *  @param  __first2  A forward iterator.
 192:/Library/DaisyToolchain/0.2.0/arm/arm-none-eabi/include/c++/10.3.1/bits/stl_algobase.h ****    *  @return   An iterator equal to @p first2+(last1-first1).
 193:/Library/DaisyToolchain/0.2.0/arm/arm-none-eabi/include/c++/10.3.1/bits/stl_algobase.h ****    *
 194:/Library/DaisyToolchain/0.2.0/arm/arm-none-eabi/include/c++/10.3.1/bits/stl_algobase.h ****    *  Swaps each element in the range @p [first1,last1) with the
 195:/Library/DaisyToolchain/0.2.0/arm/arm-none-eabi/include/c++/10.3.1/bits/stl_algobase.h ****    *  corresponding element in the range @p [first2,(last1-first1)).
 196:/Library/DaisyToolchain/0.2.0/arm/arm-none-eabi/include/c++/10.3.1/bits/stl_algobase.h ****    *  The ranges must not overlap.
 197:/Library/DaisyToolchain/0.2.0/arm/arm-none-eabi/include/c++/10.3.1/bits/stl_algobase.h ****   */
 198:/Library/DaisyToolchain/0.2.0/arm/arm-none-eabi/include/c++/10.3.1/bits/stl_algobase.h ****   template<typename _ForwardIterator1, typename _ForwardIterator2>
 199:/Library/DaisyToolchain/0.2.0/arm/arm-none-eabi/include/c++/10.3.1/bits/stl_algobase.h ****     _GLIBCXX20_CONSTEXPR
ARM GAS  /var/folders/9w/sxkx3zpj5vdcb536f5jvsqpc0000gn/T//ccNfV2cP.s 			page 34


 200:/Library/DaisyToolchain/0.2.0/arm/arm-none-eabi/include/c++/10.3.1/bits/stl_algobase.h ****     _ForwardIterator2
 201:/Library/DaisyToolchain/0.2.0/arm/arm-none-eabi/include/c++/10.3.1/bits/stl_algobase.h ****     swap_ranges(_ForwardIterator1 __first1, _ForwardIterator1 __last1,
 202:/Library/DaisyToolchain/0.2.0/arm/arm-none-eabi/include/c++/10.3.1/bits/stl_algobase.h **** 		_ForwardIterator2 __first2)
 203:/Library/DaisyToolchain/0.2.0/arm/arm-none-eabi/include/c++/10.3.1/bits/stl_algobase.h ****     {
 204:/Library/DaisyToolchain/0.2.0/arm/arm-none-eabi/include/c++/10.3.1/bits/stl_algobase.h ****       // concept requirements
 205:/Library/DaisyToolchain/0.2.0/arm/arm-none-eabi/include/c++/10.3.1/bits/stl_algobase.h ****       __glibcxx_function_requires(_Mutable_ForwardIteratorConcept<
 206:/Library/DaisyToolchain/0.2.0/arm/arm-none-eabi/include/c++/10.3.1/bits/stl_algobase.h **** 				  _ForwardIterator1>)
 207:/Library/DaisyToolchain/0.2.0/arm/arm-none-eabi/include/c++/10.3.1/bits/stl_algobase.h ****       __glibcxx_function_requires(_Mutable_ForwardIteratorConcept<
 208:/Library/DaisyToolchain/0.2.0/arm/arm-none-eabi/include/c++/10.3.1/bits/stl_algobase.h **** 				  _ForwardIterator2>)
 209:/Library/DaisyToolchain/0.2.0/arm/arm-none-eabi/include/c++/10.3.1/bits/stl_algobase.h ****       __glibcxx_requires_valid_range(__first1, __last1);
 210:/Library/DaisyToolchain/0.2.0/arm/arm-none-eabi/include/c++/10.3.1/bits/stl_algobase.h **** 
 211:/Library/DaisyToolchain/0.2.0/arm/arm-none-eabi/include/c++/10.3.1/bits/stl_algobase.h ****       for (; __first1 != __last1; ++__first1, (void)++__first2)
 212:/Library/DaisyToolchain/0.2.0/arm/arm-none-eabi/include/c++/10.3.1/bits/stl_algobase.h **** 	std::iter_swap(__first1, __first2);
 213:/Library/DaisyToolchain/0.2.0/arm/arm-none-eabi/include/c++/10.3.1/bits/stl_algobase.h ****       return __first2;
 214:/Library/DaisyToolchain/0.2.0/arm/arm-none-eabi/include/c++/10.3.1/bits/stl_algobase.h ****     }
 215:/Library/DaisyToolchain/0.2.0/arm/arm-none-eabi/include/c++/10.3.1/bits/stl_algobase.h **** 
 216:/Library/DaisyToolchain/0.2.0/arm/arm-none-eabi/include/c++/10.3.1/bits/stl_algobase.h ****   /**
 217:/Library/DaisyToolchain/0.2.0/arm/arm-none-eabi/include/c++/10.3.1/bits/stl_algobase.h ****    *  @brief This does what you think it does.
 218:/Library/DaisyToolchain/0.2.0/arm/arm-none-eabi/include/c++/10.3.1/bits/stl_algobase.h ****    *  @ingroup sorting_algorithms
 219:/Library/DaisyToolchain/0.2.0/arm/arm-none-eabi/include/c++/10.3.1/bits/stl_algobase.h ****    *  @param  __a  A thing of arbitrary type.
 220:/Library/DaisyToolchain/0.2.0/arm/arm-none-eabi/include/c++/10.3.1/bits/stl_algobase.h ****    *  @param  __b  Another thing of arbitrary type.
 221:/Library/DaisyToolchain/0.2.0/arm/arm-none-eabi/include/c++/10.3.1/bits/stl_algobase.h ****    *  @return   The lesser of the parameters.
 222:/Library/DaisyToolchain/0.2.0/arm/arm-none-eabi/include/c++/10.3.1/bits/stl_algobase.h ****    *
 223:/Library/DaisyToolchain/0.2.0/arm/arm-none-eabi/include/c++/10.3.1/bits/stl_algobase.h ****    *  This is the simple classic generic implementation.  It will work on
 224:/Library/DaisyToolchain/0.2.0/arm/arm-none-eabi/include/c++/10.3.1/bits/stl_algobase.h ****    *  temporary expressions, since they are only evaluated once, unlike a
 225:/Library/DaisyToolchain/0.2.0/arm/arm-none-eabi/include/c++/10.3.1/bits/stl_algobase.h ****    *  preprocessor macro.
 226:/Library/DaisyToolchain/0.2.0/arm/arm-none-eabi/include/c++/10.3.1/bits/stl_algobase.h ****   */
 227:/Library/DaisyToolchain/0.2.0/arm/arm-none-eabi/include/c++/10.3.1/bits/stl_algobase.h ****   template<typename _Tp>
 228:/Library/DaisyToolchain/0.2.0/arm/arm-none-eabi/include/c++/10.3.1/bits/stl_algobase.h ****     _GLIBCXX14_CONSTEXPR
 229:/Library/DaisyToolchain/0.2.0/arm/arm-none-eabi/include/c++/10.3.1/bits/stl_algobase.h ****     inline const _Tp&
 230:/Library/DaisyToolchain/0.2.0/arm/arm-none-eabi/include/c++/10.3.1/bits/stl_algobase.h ****     min(const _Tp& __a, const _Tp& __b)
 231:/Library/DaisyToolchain/0.2.0/arm/arm-none-eabi/include/c++/10.3.1/bits/stl_algobase.h ****     {
 232:/Library/DaisyToolchain/0.2.0/arm/arm-none-eabi/include/c++/10.3.1/bits/stl_algobase.h ****       // concept requirements
 233:/Library/DaisyToolchain/0.2.0/arm/arm-none-eabi/include/c++/10.3.1/bits/stl_algobase.h ****       __glibcxx_function_requires(_LessThanComparableConcept<_Tp>)
 234:/Library/DaisyToolchain/0.2.0/arm/arm-none-eabi/include/c++/10.3.1/bits/stl_algobase.h ****       //return __b < __a ? __b : __a;
 235:/Library/DaisyToolchain/0.2.0/arm/arm-none-eabi/include/c++/10.3.1/bits/stl_algobase.h ****       if (__b < __a)
 236:/Library/DaisyToolchain/0.2.0/arm/arm-none-eabi/include/c++/10.3.1/bits/stl_algobase.h **** 	return __b;
 237:/Library/DaisyToolchain/0.2.0/arm/arm-none-eabi/include/c++/10.3.1/bits/stl_algobase.h ****       return __a;
 238:/Library/DaisyToolchain/0.2.0/arm/arm-none-eabi/include/c++/10.3.1/bits/stl_algobase.h ****     }
 239:/Library/DaisyToolchain/0.2.0/arm/arm-none-eabi/include/c++/10.3.1/bits/stl_algobase.h **** 
 240:/Library/DaisyToolchain/0.2.0/arm/arm-none-eabi/include/c++/10.3.1/bits/stl_algobase.h ****   /**
 241:/Library/DaisyToolchain/0.2.0/arm/arm-none-eabi/include/c++/10.3.1/bits/stl_algobase.h ****    *  @brief This does what you think it does.
 242:/Library/DaisyToolchain/0.2.0/arm/arm-none-eabi/include/c++/10.3.1/bits/stl_algobase.h ****    *  @ingroup sorting_algorithms
 243:/Library/DaisyToolchain/0.2.0/arm/arm-none-eabi/include/c++/10.3.1/bits/stl_algobase.h ****    *  @param  __a  A thing of arbitrary type.
 244:/Library/DaisyToolchain/0.2.0/arm/arm-none-eabi/include/c++/10.3.1/bits/stl_algobase.h ****    *  @param  __b  Another thing of arbitrary type.
 245:/Library/DaisyToolchain/0.2.0/arm/arm-none-eabi/include/c++/10.3.1/bits/stl_algobase.h ****    *  @return   The greater of the parameters.
 246:/Library/DaisyToolchain/0.2.0/arm/arm-none-eabi/include/c++/10.3.1/bits/stl_algobase.h ****    *
 247:/Library/DaisyToolchain/0.2.0/arm/arm-none-eabi/include/c++/10.3.1/bits/stl_algobase.h ****    *  This is the simple classic generic implementation.  It will work on
 248:/Library/DaisyToolchain/0.2.0/arm/arm-none-eabi/include/c++/10.3.1/bits/stl_algobase.h ****    *  temporary expressions, since they are only evaluated once, unlike a
 249:/Library/DaisyToolchain/0.2.0/arm/arm-none-eabi/include/c++/10.3.1/bits/stl_algobase.h ****    *  preprocessor macro.
 250:/Library/DaisyToolchain/0.2.0/arm/arm-none-eabi/include/c++/10.3.1/bits/stl_algobase.h ****   */
 251:/Library/DaisyToolchain/0.2.0/arm/arm-none-eabi/include/c++/10.3.1/bits/stl_algobase.h ****   template<typename _Tp>
 252:/Library/DaisyToolchain/0.2.0/arm/arm-none-eabi/include/c++/10.3.1/bits/stl_algobase.h ****     _GLIBCXX14_CONSTEXPR
 253:/Library/DaisyToolchain/0.2.0/arm/arm-none-eabi/include/c++/10.3.1/bits/stl_algobase.h ****     inline const _Tp&
 254:/Library/DaisyToolchain/0.2.0/arm/arm-none-eabi/include/c++/10.3.1/bits/stl_algobase.h ****     max(const _Tp& __a, const _Tp& __b)
 255:/Library/DaisyToolchain/0.2.0/arm/arm-none-eabi/include/c++/10.3.1/bits/stl_algobase.h ****     {
 256:/Library/DaisyToolchain/0.2.0/arm/arm-none-eabi/include/c++/10.3.1/bits/stl_algobase.h ****       // concept requirements
ARM GAS  /var/folders/9w/sxkx3zpj5vdcb536f5jvsqpc0000gn/T//ccNfV2cP.s 			page 35


 257:/Library/DaisyToolchain/0.2.0/arm/arm-none-eabi/include/c++/10.3.1/bits/stl_algobase.h ****       __glibcxx_function_requires(_LessThanComparableConcept<_Tp>)
 258:/Library/DaisyToolchain/0.2.0/arm/arm-none-eabi/include/c++/10.3.1/bits/stl_algobase.h ****       //return  __a < __b ? __b : __a;
 259:/Library/DaisyToolchain/0.2.0/arm/arm-none-eabi/include/c++/10.3.1/bits/stl_algobase.h ****       if (__a < __b)
 260:/Library/DaisyToolchain/0.2.0/arm/arm-none-eabi/include/c++/10.3.1/bits/stl_algobase.h **** 	return __b;
 261:/Library/DaisyToolchain/0.2.0/arm/arm-none-eabi/include/c++/10.3.1/bits/stl_algobase.h ****       return __a;
 262:/Library/DaisyToolchain/0.2.0/arm/arm-none-eabi/include/c++/10.3.1/bits/stl_algobase.h ****     }
 263:/Library/DaisyToolchain/0.2.0/arm/arm-none-eabi/include/c++/10.3.1/bits/stl_algobase.h **** 
 264:/Library/DaisyToolchain/0.2.0/arm/arm-none-eabi/include/c++/10.3.1/bits/stl_algobase.h ****   /**
 265:/Library/DaisyToolchain/0.2.0/arm/arm-none-eabi/include/c++/10.3.1/bits/stl_algobase.h ****    *  @brief This does what you think it does.
 266:/Library/DaisyToolchain/0.2.0/arm/arm-none-eabi/include/c++/10.3.1/bits/stl_algobase.h ****    *  @ingroup sorting_algorithms
 267:/Library/DaisyToolchain/0.2.0/arm/arm-none-eabi/include/c++/10.3.1/bits/stl_algobase.h ****    *  @param  __a  A thing of arbitrary type.
 268:/Library/DaisyToolchain/0.2.0/arm/arm-none-eabi/include/c++/10.3.1/bits/stl_algobase.h ****    *  @param  __b  Another thing of arbitrary type.
 269:/Library/DaisyToolchain/0.2.0/arm/arm-none-eabi/include/c++/10.3.1/bits/stl_algobase.h ****    *  @param  __comp  A @link comparison_functors comparison functor@endlink.
 270:/Library/DaisyToolchain/0.2.0/arm/arm-none-eabi/include/c++/10.3.1/bits/stl_algobase.h ****    *  @return   The lesser of the parameters.
 271:/Library/DaisyToolchain/0.2.0/arm/arm-none-eabi/include/c++/10.3.1/bits/stl_algobase.h ****    *
 272:/Library/DaisyToolchain/0.2.0/arm/arm-none-eabi/include/c++/10.3.1/bits/stl_algobase.h ****    *  This will work on temporary expressions, since they are only evaluated
 273:/Library/DaisyToolchain/0.2.0/arm/arm-none-eabi/include/c++/10.3.1/bits/stl_algobase.h ****    *  once, unlike a preprocessor macro.
 274:/Library/DaisyToolchain/0.2.0/arm/arm-none-eabi/include/c++/10.3.1/bits/stl_algobase.h ****   */
 275:/Library/DaisyToolchain/0.2.0/arm/arm-none-eabi/include/c++/10.3.1/bits/stl_algobase.h ****   template<typename _Tp, typename _Compare>
 276:/Library/DaisyToolchain/0.2.0/arm/arm-none-eabi/include/c++/10.3.1/bits/stl_algobase.h ****     _GLIBCXX14_CONSTEXPR
 277:/Library/DaisyToolchain/0.2.0/arm/arm-none-eabi/include/c++/10.3.1/bits/stl_algobase.h ****     inline const _Tp&
 278:/Library/DaisyToolchain/0.2.0/arm/arm-none-eabi/include/c++/10.3.1/bits/stl_algobase.h ****     min(const _Tp& __a, const _Tp& __b, _Compare __comp)
 279:/Library/DaisyToolchain/0.2.0/arm/arm-none-eabi/include/c++/10.3.1/bits/stl_algobase.h ****     {
 280:/Library/DaisyToolchain/0.2.0/arm/arm-none-eabi/include/c++/10.3.1/bits/stl_algobase.h ****       //return __comp(__b, __a) ? __b : __a;
 281:/Library/DaisyToolchain/0.2.0/arm/arm-none-eabi/include/c++/10.3.1/bits/stl_algobase.h ****       if (__comp(__b, __a))
 282:/Library/DaisyToolchain/0.2.0/arm/arm-none-eabi/include/c++/10.3.1/bits/stl_algobase.h **** 	return __b;
 283:/Library/DaisyToolchain/0.2.0/arm/arm-none-eabi/include/c++/10.3.1/bits/stl_algobase.h ****       return __a;
 284:/Library/DaisyToolchain/0.2.0/arm/arm-none-eabi/include/c++/10.3.1/bits/stl_algobase.h ****     }
 285:/Library/DaisyToolchain/0.2.0/arm/arm-none-eabi/include/c++/10.3.1/bits/stl_algobase.h **** 
 286:/Library/DaisyToolchain/0.2.0/arm/arm-none-eabi/include/c++/10.3.1/bits/stl_algobase.h ****   /**
 287:/Library/DaisyToolchain/0.2.0/arm/arm-none-eabi/include/c++/10.3.1/bits/stl_algobase.h ****    *  @brief This does what you think it does.
 288:/Library/DaisyToolchain/0.2.0/arm/arm-none-eabi/include/c++/10.3.1/bits/stl_algobase.h ****    *  @ingroup sorting_algorithms
 289:/Library/DaisyToolchain/0.2.0/arm/arm-none-eabi/include/c++/10.3.1/bits/stl_algobase.h ****    *  @param  __a  A thing of arbitrary type.
 290:/Library/DaisyToolchain/0.2.0/arm/arm-none-eabi/include/c++/10.3.1/bits/stl_algobase.h ****    *  @param  __b  Another thing of arbitrary type.
 291:/Library/DaisyToolchain/0.2.0/arm/arm-none-eabi/include/c++/10.3.1/bits/stl_algobase.h ****    *  @param  __comp  A @link comparison_functors comparison functor@endlink.
 292:/Library/DaisyToolchain/0.2.0/arm/arm-none-eabi/include/c++/10.3.1/bits/stl_algobase.h ****    *  @return   The greater of the parameters.
 293:/Library/DaisyToolchain/0.2.0/arm/arm-none-eabi/include/c++/10.3.1/bits/stl_algobase.h ****    *
 294:/Library/DaisyToolchain/0.2.0/arm/arm-none-eabi/include/c++/10.3.1/bits/stl_algobase.h ****    *  This will work on temporary expressions, since they are only evaluated
 295:/Library/DaisyToolchain/0.2.0/arm/arm-none-eabi/include/c++/10.3.1/bits/stl_algobase.h ****    *  once, unlike a preprocessor macro.
 296:/Library/DaisyToolchain/0.2.0/arm/arm-none-eabi/include/c++/10.3.1/bits/stl_algobase.h ****   */
 297:/Library/DaisyToolchain/0.2.0/arm/arm-none-eabi/include/c++/10.3.1/bits/stl_algobase.h ****   template<typename _Tp, typename _Compare>
 298:/Library/DaisyToolchain/0.2.0/arm/arm-none-eabi/include/c++/10.3.1/bits/stl_algobase.h ****     _GLIBCXX14_CONSTEXPR
 299:/Library/DaisyToolchain/0.2.0/arm/arm-none-eabi/include/c++/10.3.1/bits/stl_algobase.h ****     inline const _Tp&
 300:/Library/DaisyToolchain/0.2.0/arm/arm-none-eabi/include/c++/10.3.1/bits/stl_algobase.h ****     max(const _Tp& __a, const _Tp& __b, _Compare __comp)
 301:/Library/DaisyToolchain/0.2.0/arm/arm-none-eabi/include/c++/10.3.1/bits/stl_algobase.h ****     {
 302:/Library/DaisyToolchain/0.2.0/arm/arm-none-eabi/include/c++/10.3.1/bits/stl_algobase.h ****       //return __comp(__a, __b) ? __b : __a;
 303:/Library/DaisyToolchain/0.2.0/arm/arm-none-eabi/include/c++/10.3.1/bits/stl_algobase.h ****       if (__comp(__a, __b))
 304:/Library/DaisyToolchain/0.2.0/arm/arm-none-eabi/include/c++/10.3.1/bits/stl_algobase.h **** 	return __b;
 305:/Library/DaisyToolchain/0.2.0/arm/arm-none-eabi/include/c++/10.3.1/bits/stl_algobase.h ****       return __a;
 306:/Library/DaisyToolchain/0.2.0/arm/arm-none-eabi/include/c++/10.3.1/bits/stl_algobase.h ****     }
 307:/Library/DaisyToolchain/0.2.0/arm/arm-none-eabi/include/c++/10.3.1/bits/stl_algobase.h **** 
 308:/Library/DaisyToolchain/0.2.0/arm/arm-none-eabi/include/c++/10.3.1/bits/stl_algobase.h ****   // Fallback implementation of the function in bits/stl_iterator.h used to
 309:/Library/DaisyToolchain/0.2.0/arm/arm-none-eabi/include/c++/10.3.1/bits/stl_algobase.h ****   // remove the __normal_iterator wrapper. See copy, fill, ...
 310:/Library/DaisyToolchain/0.2.0/arm/arm-none-eabi/include/c++/10.3.1/bits/stl_algobase.h ****   template<typename _Iterator>
 311:/Library/DaisyToolchain/0.2.0/arm/arm-none-eabi/include/c++/10.3.1/bits/stl_algobase.h ****     _GLIBCXX20_CONSTEXPR
 312:/Library/DaisyToolchain/0.2.0/arm/arm-none-eabi/include/c++/10.3.1/bits/stl_algobase.h ****     inline _Iterator
 313:/Library/DaisyToolchain/0.2.0/arm/arm-none-eabi/include/c++/10.3.1/bits/stl_algobase.h ****     __niter_base(_Iterator __it)
ARM GAS  /var/folders/9w/sxkx3zpj5vdcb536f5jvsqpc0000gn/T//ccNfV2cP.s 			page 36


 314:/Library/DaisyToolchain/0.2.0/arm/arm-none-eabi/include/c++/10.3.1/bits/stl_algobase.h ****     _GLIBCXX_NOEXCEPT_IF(std::is_nothrow_copy_constructible<_Iterator>::value)
 315:/Library/DaisyToolchain/0.2.0/arm/arm-none-eabi/include/c++/10.3.1/bits/stl_algobase.h ****     { return __it; }
 316:/Library/DaisyToolchain/0.2.0/arm/arm-none-eabi/include/c++/10.3.1/bits/stl_algobase.h **** 
 317:/Library/DaisyToolchain/0.2.0/arm/arm-none-eabi/include/c++/10.3.1/bits/stl_algobase.h ****   // Reverse the __niter_base transformation to get a
 318:/Library/DaisyToolchain/0.2.0/arm/arm-none-eabi/include/c++/10.3.1/bits/stl_algobase.h ****   // __normal_iterator back again (this assumes that __normal_iterator
 319:/Library/DaisyToolchain/0.2.0/arm/arm-none-eabi/include/c++/10.3.1/bits/stl_algobase.h ****   // is only used to wrap random access iterators, like pointers).
 320:/Library/DaisyToolchain/0.2.0/arm/arm-none-eabi/include/c++/10.3.1/bits/stl_algobase.h ****   template<typename _From, typename _To>
 321:/Library/DaisyToolchain/0.2.0/arm/arm-none-eabi/include/c++/10.3.1/bits/stl_algobase.h ****     _GLIBCXX20_CONSTEXPR
 322:/Library/DaisyToolchain/0.2.0/arm/arm-none-eabi/include/c++/10.3.1/bits/stl_algobase.h ****     inline _From
 323:/Library/DaisyToolchain/0.2.0/arm/arm-none-eabi/include/c++/10.3.1/bits/stl_algobase.h ****     __niter_wrap(_From __from, _To __res)
 324:/Library/DaisyToolchain/0.2.0/arm/arm-none-eabi/include/c++/10.3.1/bits/stl_algobase.h ****     { return __from + (__res - std::__niter_base(__from)); }
 325:/Library/DaisyToolchain/0.2.0/arm/arm-none-eabi/include/c++/10.3.1/bits/stl_algobase.h **** 
 326:/Library/DaisyToolchain/0.2.0/arm/arm-none-eabi/include/c++/10.3.1/bits/stl_algobase.h ****   // No need to wrap, iterator already has the right type.
 327:/Library/DaisyToolchain/0.2.0/arm/arm-none-eabi/include/c++/10.3.1/bits/stl_algobase.h ****   template<typename _Iterator>
 328:/Library/DaisyToolchain/0.2.0/arm/arm-none-eabi/include/c++/10.3.1/bits/stl_algobase.h ****     _GLIBCXX20_CONSTEXPR
 329:/Library/DaisyToolchain/0.2.0/arm/arm-none-eabi/include/c++/10.3.1/bits/stl_algobase.h ****     inline _Iterator
 330:/Library/DaisyToolchain/0.2.0/arm/arm-none-eabi/include/c++/10.3.1/bits/stl_algobase.h ****     __niter_wrap(const _Iterator&, _Iterator __res)
 331:/Library/DaisyToolchain/0.2.0/arm/arm-none-eabi/include/c++/10.3.1/bits/stl_algobase.h ****     { return __res; }
 332:/Library/DaisyToolchain/0.2.0/arm/arm-none-eabi/include/c++/10.3.1/bits/stl_algobase.h **** 
 333:/Library/DaisyToolchain/0.2.0/arm/arm-none-eabi/include/c++/10.3.1/bits/stl_algobase.h ****   // All of these auxiliary structs serve two purposes.  (1) Replace
 334:/Library/DaisyToolchain/0.2.0/arm/arm-none-eabi/include/c++/10.3.1/bits/stl_algobase.h ****   // calls to copy with memmove whenever possible.  (Memmove, not memcpy,
 335:/Library/DaisyToolchain/0.2.0/arm/arm-none-eabi/include/c++/10.3.1/bits/stl_algobase.h ****   // because the input and output ranges are permitted to overlap.)
 336:/Library/DaisyToolchain/0.2.0/arm/arm-none-eabi/include/c++/10.3.1/bits/stl_algobase.h ****   // (2) If we're using random access iterators, then write the loop as
 337:/Library/DaisyToolchain/0.2.0/arm/arm-none-eabi/include/c++/10.3.1/bits/stl_algobase.h ****   // a for loop with an explicit count.
 338:/Library/DaisyToolchain/0.2.0/arm/arm-none-eabi/include/c++/10.3.1/bits/stl_algobase.h **** 
 339:/Library/DaisyToolchain/0.2.0/arm/arm-none-eabi/include/c++/10.3.1/bits/stl_algobase.h ****   template<bool _IsMove, bool _IsSimple, typename _Category>
 340:/Library/DaisyToolchain/0.2.0/arm/arm-none-eabi/include/c++/10.3.1/bits/stl_algobase.h ****     struct __copy_move
 341:/Library/DaisyToolchain/0.2.0/arm/arm-none-eabi/include/c++/10.3.1/bits/stl_algobase.h ****     {
 342:/Library/DaisyToolchain/0.2.0/arm/arm-none-eabi/include/c++/10.3.1/bits/stl_algobase.h ****       template<typename _II, typename _OI>
 343:/Library/DaisyToolchain/0.2.0/arm/arm-none-eabi/include/c++/10.3.1/bits/stl_algobase.h **** 	_GLIBCXX20_CONSTEXPR
 344:/Library/DaisyToolchain/0.2.0/arm/arm-none-eabi/include/c++/10.3.1/bits/stl_algobase.h **** 	static _OI
 345:/Library/DaisyToolchain/0.2.0/arm/arm-none-eabi/include/c++/10.3.1/bits/stl_algobase.h **** 	__copy_m(_II __first, _II __last, _OI __result)
 346:/Library/DaisyToolchain/0.2.0/arm/arm-none-eabi/include/c++/10.3.1/bits/stl_algobase.h **** 	{
 347:/Library/DaisyToolchain/0.2.0/arm/arm-none-eabi/include/c++/10.3.1/bits/stl_algobase.h **** 	  for (; __first != __last; ++__result, (void)++__first)
 348:/Library/DaisyToolchain/0.2.0/arm/arm-none-eabi/include/c++/10.3.1/bits/stl_algobase.h **** 	    *__result = *__first;
 349:/Library/DaisyToolchain/0.2.0/arm/arm-none-eabi/include/c++/10.3.1/bits/stl_algobase.h **** 	  return __result;
 350:/Library/DaisyToolchain/0.2.0/arm/arm-none-eabi/include/c++/10.3.1/bits/stl_algobase.h **** 	}
 351:/Library/DaisyToolchain/0.2.0/arm/arm-none-eabi/include/c++/10.3.1/bits/stl_algobase.h ****     };
 352:/Library/DaisyToolchain/0.2.0/arm/arm-none-eabi/include/c++/10.3.1/bits/stl_algobase.h **** 
 353:/Library/DaisyToolchain/0.2.0/arm/arm-none-eabi/include/c++/10.3.1/bits/stl_algobase.h **** #if __cplusplus >= 201103L
 354:/Library/DaisyToolchain/0.2.0/arm/arm-none-eabi/include/c++/10.3.1/bits/stl_algobase.h ****   template<typename _Category>
 355:/Library/DaisyToolchain/0.2.0/arm/arm-none-eabi/include/c++/10.3.1/bits/stl_algobase.h ****     struct __copy_move<true, false, _Category>
 356:/Library/DaisyToolchain/0.2.0/arm/arm-none-eabi/include/c++/10.3.1/bits/stl_algobase.h ****     {
 357:/Library/DaisyToolchain/0.2.0/arm/arm-none-eabi/include/c++/10.3.1/bits/stl_algobase.h ****       template<typename _II, typename _OI>
 358:/Library/DaisyToolchain/0.2.0/arm/arm-none-eabi/include/c++/10.3.1/bits/stl_algobase.h **** 	_GLIBCXX20_CONSTEXPR
 359:/Library/DaisyToolchain/0.2.0/arm/arm-none-eabi/include/c++/10.3.1/bits/stl_algobase.h **** 	static _OI
 360:/Library/DaisyToolchain/0.2.0/arm/arm-none-eabi/include/c++/10.3.1/bits/stl_algobase.h **** 	__copy_m(_II __first, _II __last, _OI __result)
 361:/Library/DaisyToolchain/0.2.0/arm/arm-none-eabi/include/c++/10.3.1/bits/stl_algobase.h **** 	{
 362:/Library/DaisyToolchain/0.2.0/arm/arm-none-eabi/include/c++/10.3.1/bits/stl_algobase.h **** 	  for (; __first != __last; ++__result, (void)++__first)
 363:/Library/DaisyToolchain/0.2.0/arm/arm-none-eabi/include/c++/10.3.1/bits/stl_algobase.h **** 	    *__result = std::move(*__first);
 364:/Library/DaisyToolchain/0.2.0/arm/arm-none-eabi/include/c++/10.3.1/bits/stl_algobase.h **** 	  return __result;
 365:/Library/DaisyToolchain/0.2.0/arm/arm-none-eabi/include/c++/10.3.1/bits/stl_algobase.h **** 	}
 366:/Library/DaisyToolchain/0.2.0/arm/arm-none-eabi/include/c++/10.3.1/bits/stl_algobase.h ****     };
 367:/Library/DaisyToolchain/0.2.0/arm/arm-none-eabi/include/c++/10.3.1/bits/stl_algobase.h **** #endif
 368:/Library/DaisyToolchain/0.2.0/arm/arm-none-eabi/include/c++/10.3.1/bits/stl_algobase.h **** 
 369:/Library/DaisyToolchain/0.2.0/arm/arm-none-eabi/include/c++/10.3.1/bits/stl_algobase.h ****   template<>
 370:/Library/DaisyToolchain/0.2.0/arm/arm-none-eabi/include/c++/10.3.1/bits/stl_algobase.h ****     struct __copy_move<false, false, random_access_iterator_tag>
ARM GAS  /var/folders/9w/sxkx3zpj5vdcb536f5jvsqpc0000gn/T//ccNfV2cP.s 			page 37


 371:/Library/DaisyToolchain/0.2.0/arm/arm-none-eabi/include/c++/10.3.1/bits/stl_algobase.h ****     {
 372:/Library/DaisyToolchain/0.2.0/arm/arm-none-eabi/include/c++/10.3.1/bits/stl_algobase.h ****       template<typename _II, typename _OI>
 373:/Library/DaisyToolchain/0.2.0/arm/arm-none-eabi/include/c++/10.3.1/bits/stl_algobase.h **** 	_GLIBCXX20_CONSTEXPR
 374:/Library/DaisyToolchain/0.2.0/arm/arm-none-eabi/include/c++/10.3.1/bits/stl_algobase.h **** 	static _OI
 375:/Library/DaisyToolchain/0.2.0/arm/arm-none-eabi/include/c++/10.3.1/bits/stl_algobase.h **** 	__copy_m(_II __first, _II __last, _OI __result)
 376:/Library/DaisyToolchain/0.2.0/arm/arm-none-eabi/include/c++/10.3.1/bits/stl_algobase.h **** 	{
 377:/Library/DaisyToolchain/0.2.0/arm/arm-none-eabi/include/c++/10.3.1/bits/stl_algobase.h **** 	  typedef typename iterator_traits<_II>::difference_type _Distance;
 378:/Library/DaisyToolchain/0.2.0/arm/arm-none-eabi/include/c++/10.3.1/bits/stl_algobase.h **** 	  for(_Distance __n = __last - __first; __n > 0; --__n)
 379:/Library/DaisyToolchain/0.2.0/arm/arm-none-eabi/include/c++/10.3.1/bits/stl_algobase.h **** 	    {
 380:/Library/DaisyToolchain/0.2.0/arm/arm-none-eabi/include/c++/10.3.1/bits/stl_algobase.h **** 	      *__result = *__first;
 381:/Library/DaisyToolchain/0.2.0/arm/arm-none-eabi/include/c++/10.3.1/bits/stl_algobase.h **** 	      ++__first;
 382:/Library/DaisyToolchain/0.2.0/arm/arm-none-eabi/include/c++/10.3.1/bits/stl_algobase.h **** 	      ++__result;
 383:/Library/DaisyToolchain/0.2.0/arm/arm-none-eabi/include/c++/10.3.1/bits/stl_algobase.h **** 	    }
 384:/Library/DaisyToolchain/0.2.0/arm/arm-none-eabi/include/c++/10.3.1/bits/stl_algobase.h **** 	  return __result;
 385:/Library/DaisyToolchain/0.2.0/arm/arm-none-eabi/include/c++/10.3.1/bits/stl_algobase.h **** 	}
 386:/Library/DaisyToolchain/0.2.0/arm/arm-none-eabi/include/c++/10.3.1/bits/stl_algobase.h ****     };
 387:/Library/DaisyToolchain/0.2.0/arm/arm-none-eabi/include/c++/10.3.1/bits/stl_algobase.h **** 
 388:/Library/DaisyToolchain/0.2.0/arm/arm-none-eabi/include/c++/10.3.1/bits/stl_algobase.h **** #if __cplusplus >= 201103L
 389:/Library/DaisyToolchain/0.2.0/arm/arm-none-eabi/include/c++/10.3.1/bits/stl_algobase.h ****   template<>
 390:/Library/DaisyToolchain/0.2.0/arm/arm-none-eabi/include/c++/10.3.1/bits/stl_algobase.h ****     struct __copy_move<true, false, random_access_iterator_tag>
 391:/Library/DaisyToolchain/0.2.0/arm/arm-none-eabi/include/c++/10.3.1/bits/stl_algobase.h ****     {
 392:/Library/DaisyToolchain/0.2.0/arm/arm-none-eabi/include/c++/10.3.1/bits/stl_algobase.h ****       template<typename _II, typename _OI>
 393:/Library/DaisyToolchain/0.2.0/arm/arm-none-eabi/include/c++/10.3.1/bits/stl_algobase.h **** 	_GLIBCXX20_CONSTEXPR
 394:/Library/DaisyToolchain/0.2.0/arm/arm-none-eabi/include/c++/10.3.1/bits/stl_algobase.h **** 	static _OI
 395:/Library/DaisyToolchain/0.2.0/arm/arm-none-eabi/include/c++/10.3.1/bits/stl_algobase.h **** 	__copy_m(_II __first, _II __last, _OI __result)
 396:/Library/DaisyToolchain/0.2.0/arm/arm-none-eabi/include/c++/10.3.1/bits/stl_algobase.h **** 	{
 397:/Library/DaisyToolchain/0.2.0/arm/arm-none-eabi/include/c++/10.3.1/bits/stl_algobase.h **** 	  typedef typename iterator_traits<_II>::difference_type _Distance;
 398:/Library/DaisyToolchain/0.2.0/arm/arm-none-eabi/include/c++/10.3.1/bits/stl_algobase.h **** 	  for(_Distance __n = __last - __first; __n > 0; --__n)
 399:/Library/DaisyToolchain/0.2.0/arm/arm-none-eabi/include/c++/10.3.1/bits/stl_algobase.h **** 	    {
 400:/Library/DaisyToolchain/0.2.0/arm/arm-none-eabi/include/c++/10.3.1/bits/stl_algobase.h **** 	      *__result = std::move(*__first);
 401:/Library/DaisyToolchain/0.2.0/arm/arm-none-eabi/include/c++/10.3.1/bits/stl_algobase.h **** 	      ++__first;
 402:/Library/DaisyToolchain/0.2.0/arm/arm-none-eabi/include/c++/10.3.1/bits/stl_algobase.h **** 	      ++__result;
 403:/Library/DaisyToolchain/0.2.0/arm/arm-none-eabi/include/c++/10.3.1/bits/stl_algobase.h **** 	    }
 404:/Library/DaisyToolchain/0.2.0/arm/arm-none-eabi/include/c++/10.3.1/bits/stl_algobase.h **** 	  return __result;
 405:/Library/DaisyToolchain/0.2.0/arm/arm-none-eabi/include/c++/10.3.1/bits/stl_algobase.h **** 	}
 406:/Library/DaisyToolchain/0.2.0/arm/arm-none-eabi/include/c++/10.3.1/bits/stl_algobase.h ****     };
 407:/Library/DaisyToolchain/0.2.0/arm/arm-none-eabi/include/c++/10.3.1/bits/stl_algobase.h **** #endif
 408:/Library/DaisyToolchain/0.2.0/arm/arm-none-eabi/include/c++/10.3.1/bits/stl_algobase.h **** 
 409:/Library/DaisyToolchain/0.2.0/arm/arm-none-eabi/include/c++/10.3.1/bits/stl_algobase.h ****   template<bool _IsMove>
 410:/Library/DaisyToolchain/0.2.0/arm/arm-none-eabi/include/c++/10.3.1/bits/stl_algobase.h ****     struct __copy_move<_IsMove, true, random_access_iterator_tag>
 411:/Library/DaisyToolchain/0.2.0/arm/arm-none-eabi/include/c++/10.3.1/bits/stl_algobase.h ****     {
 412:/Library/DaisyToolchain/0.2.0/arm/arm-none-eabi/include/c++/10.3.1/bits/stl_algobase.h ****       template<typename _Tp>
 413:/Library/DaisyToolchain/0.2.0/arm/arm-none-eabi/include/c++/10.3.1/bits/stl_algobase.h **** 	_GLIBCXX20_CONSTEXPR
 414:/Library/DaisyToolchain/0.2.0/arm/arm-none-eabi/include/c++/10.3.1/bits/stl_algobase.h **** 	static _Tp*
 415:/Library/DaisyToolchain/0.2.0/arm/arm-none-eabi/include/c++/10.3.1/bits/stl_algobase.h **** 	__copy_m(const _Tp* __first, const _Tp* __last, _Tp* __result)
 416:/Library/DaisyToolchain/0.2.0/arm/arm-none-eabi/include/c++/10.3.1/bits/stl_algobase.h **** 	{
 417:/Library/DaisyToolchain/0.2.0/arm/arm-none-eabi/include/c++/10.3.1/bits/stl_algobase.h **** #if __cplusplus >= 201103L
 418:/Library/DaisyToolchain/0.2.0/arm/arm-none-eabi/include/c++/10.3.1/bits/stl_algobase.h **** 	  using __assignable = conditional<_IsMove,
 419:/Library/DaisyToolchain/0.2.0/arm/arm-none-eabi/include/c++/10.3.1/bits/stl_algobase.h **** 					   is_move_assignable<_Tp>,
 420:/Library/DaisyToolchain/0.2.0/arm/arm-none-eabi/include/c++/10.3.1/bits/stl_algobase.h **** 					   is_copy_assignable<_Tp>>;
 421:/Library/DaisyToolchain/0.2.0/arm/arm-none-eabi/include/c++/10.3.1/bits/stl_algobase.h **** 	  // trivial types can have deleted assignment
 422:/Library/DaisyToolchain/0.2.0/arm/arm-none-eabi/include/c++/10.3.1/bits/stl_algobase.h **** 	  static_assert( __assignable::type::value, "type is not assignable" );
 423:/Library/DaisyToolchain/0.2.0/arm/arm-none-eabi/include/c++/10.3.1/bits/stl_algobase.h **** #endif
 424:/Library/DaisyToolchain/0.2.0/arm/arm-none-eabi/include/c++/10.3.1/bits/stl_algobase.h **** 	  const ptrdiff_t _Num = __last - __first;
 425:/Library/DaisyToolchain/0.2.0/arm/arm-none-eabi/include/c++/10.3.1/bits/stl_algobase.h **** 	  if (_Num)
 426:/Library/DaisyToolchain/0.2.0/arm/arm-none-eabi/include/c++/10.3.1/bits/stl_algobase.h **** 	    __builtin_memmove(__result, __first, sizeof(_Tp) * _Num);
 427:/Library/DaisyToolchain/0.2.0/arm/arm-none-eabi/include/c++/10.3.1/bits/stl_algobase.h **** 	  return __result + _Num;
ARM GAS  /var/folders/9w/sxkx3zpj5vdcb536f5jvsqpc0000gn/T//ccNfV2cP.s 			page 38


 428:/Library/DaisyToolchain/0.2.0/arm/arm-none-eabi/include/c++/10.3.1/bits/stl_algobase.h **** 	}
 429:/Library/DaisyToolchain/0.2.0/arm/arm-none-eabi/include/c++/10.3.1/bits/stl_algobase.h ****     };
 430:/Library/DaisyToolchain/0.2.0/arm/arm-none-eabi/include/c++/10.3.1/bits/stl_algobase.h **** 
 431:/Library/DaisyToolchain/0.2.0/arm/arm-none-eabi/include/c++/10.3.1/bits/stl_algobase.h ****   // Helpers for streambuf iterators (either istream or ostream).
 432:/Library/DaisyToolchain/0.2.0/arm/arm-none-eabi/include/c++/10.3.1/bits/stl_algobase.h ****   // NB: avoid including <iosfwd>, relatively large.
 433:/Library/DaisyToolchain/0.2.0/arm/arm-none-eabi/include/c++/10.3.1/bits/stl_algobase.h ****   template<typename _CharT>
 434:/Library/DaisyToolchain/0.2.0/arm/arm-none-eabi/include/c++/10.3.1/bits/stl_algobase.h ****     struct char_traits;
 435:/Library/DaisyToolchain/0.2.0/arm/arm-none-eabi/include/c++/10.3.1/bits/stl_algobase.h **** 
 436:/Library/DaisyToolchain/0.2.0/arm/arm-none-eabi/include/c++/10.3.1/bits/stl_algobase.h ****   template<typename _CharT, typename _Traits>
 437:/Library/DaisyToolchain/0.2.0/arm/arm-none-eabi/include/c++/10.3.1/bits/stl_algobase.h ****     class istreambuf_iterator;
 438:/Library/DaisyToolchain/0.2.0/arm/arm-none-eabi/include/c++/10.3.1/bits/stl_algobase.h **** 
 439:/Library/DaisyToolchain/0.2.0/arm/arm-none-eabi/include/c++/10.3.1/bits/stl_algobase.h ****   template<typename _CharT, typename _Traits>
 440:/Library/DaisyToolchain/0.2.0/arm/arm-none-eabi/include/c++/10.3.1/bits/stl_algobase.h ****     class ostreambuf_iterator;
 441:/Library/DaisyToolchain/0.2.0/arm/arm-none-eabi/include/c++/10.3.1/bits/stl_algobase.h **** 
 442:/Library/DaisyToolchain/0.2.0/arm/arm-none-eabi/include/c++/10.3.1/bits/stl_algobase.h ****   template<bool _IsMove, typename _CharT>
 443:/Library/DaisyToolchain/0.2.0/arm/arm-none-eabi/include/c++/10.3.1/bits/stl_algobase.h ****     typename __gnu_cxx::__enable_if<__is_char<_CharT>::__value,
 444:/Library/DaisyToolchain/0.2.0/arm/arm-none-eabi/include/c++/10.3.1/bits/stl_algobase.h **** 	     ostreambuf_iterator<_CharT, char_traits<_CharT> > >::__type
 445:/Library/DaisyToolchain/0.2.0/arm/arm-none-eabi/include/c++/10.3.1/bits/stl_algobase.h ****     __copy_move_a2(_CharT*, _CharT*,
 446:/Library/DaisyToolchain/0.2.0/arm/arm-none-eabi/include/c++/10.3.1/bits/stl_algobase.h **** 		   ostreambuf_iterator<_CharT, char_traits<_CharT> >);
 447:/Library/DaisyToolchain/0.2.0/arm/arm-none-eabi/include/c++/10.3.1/bits/stl_algobase.h **** 
 448:/Library/DaisyToolchain/0.2.0/arm/arm-none-eabi/include/c++/10.3.1/bits/stl_algobase.h ****   template<bool _IsMove, typename _CharT>
 449:/Library/DaisyToolchain/0.2.0/arm/arm-none-eabi/include/c++/10.3.1/bits/stl_algobase.h ****     typename __gnu_cxx::__enable_if<__is_char<_CharT>::__value,
 450:/Library/DaisyToolchain/0.2.0/arm/arm-none-eabi/include/c++/10.3.1/bits/stl_algobase.h **** 	     ostreambuf_iterator<_CharT, char_traits<_CharT> > >::__type
 451:/Library/DaisyToolchain/0.2.0/arm/arm-none-eabi/include/c++/10.3.1/bits/stl_algobase.h ****     __copy_move_a2(const _CharT*, const _CharT*,
 452:/Library/DaisyToolchain/0.2.0/arm/arm-none-eabi/include/c++/10.3.1/bits/stl_algobase.h **** 		   ostreambuf_iterator<_CharT, char_traits<_CharT> >);
 453:/Library/DaisyToolchain/0.2.0/arm/arm-none-eabi/include/c++/10.3.1/bits/stl_algobase.h **** 
 454:/Library/DaisyToolchain/0.2.0/arm/arm-none-eabi/include/c++/10.3.1/bits/stl_algobase.h ****   template<bool _IsMove, typename _CharT>
 455:/Library/DaisyToolchain/0.2.0/arm/arm-none-eabi/include/c++/10.3.1/bits/stl_algobase.h ****     typename __gnu_cxx::__enable_if<__is_char<_CharT>::__value,
 456:/Library/DaisyToolchain/0.2.0/arm/arm-none-eabi/include/c++/10.3.1/bits/stl_algobase.h **** 				    _CharT*>::__type
 457:/Library/DaisyToolchain/0.2.0/arm/arm-none-eabi/include/c++/10.3.1/bits/stl_algobase.h ****     __copy_move_a2(istreambuf_iterator<_CharT, char_traits<_CharT> >,
 458:/Library/DaisyToolchain/0.2.0/arm/arm-none-eabi/include/c++/10.3.1/bits/stl_algobase.h **** 		   istreambuf_iterator<_CharT, char_traits<_CharT> >, _CharT*);
 459:/Library/DaisyToolchain/0.2.0/arm/arm-none-eabi/include/c++/10.3.1/bits/stl_algobase.h **** 
 460:/Library/DaisyToolchain/0.2.0/arm/arm-none-eabi/include/c++/10.3.1/bits/stl_algobase.h ****   template<bool _IsMove, typename _II, typename _OI>
 461:/Library/DaisyToolchain/0.2.0/arm/arm-none-eabi/include/c++/10.3.1/bits/stl_algobase.h ****     _GLIBCXX20_CONSTEXPR
 462:/Library/DaisyToolchain/0.2.0/arm/arm-none-eabi/include/c++/10.3.1/bits/stl_algobase.h ****     inline _OI
 463:/Library/DaisyToolchain/0.2.0/arm/arm-none-eabi/include/c++/10.3.1/bits/stl_algobase.h ****     __copy_move_a2(_II __first, _II __last, _OI __result)
 464:/Library/DaisyToolchain/0.2.0/arm/arm-none-eabi/include/c++/10.3.1/bits/stl_algobase.h ****     {
 465:/Library/DaisyToolchain/0.2.0/arm/arm-none-eabi/include/c++/10.3.1/bits/stl_algobase.h ****       typedef typename iterator_traits<_II>::iterator_category _Category;
 466:/Library/DaisyToolchain/0.2.0/arm/arm-none-eabi/include/c++/10.3.1/bits/stl_algobase.h **** #ifdef __cpp_lib_is_constant_evaluated
 467:/Library/DaisyToolchain/0.2.0/arm/arm-none-eabi/include/c++/10.3.1/bits/stl_algobase.h ****       if (std::is_constant_evaluated())
 468:/Library/DaisyToolchain/0.2.0/arm/arm-none-eabi/include/c++/10.3.1/bits/stl_algobase.h **** 	return std::__copy_move<_IsMove, false, _Category>::
 469:/Library/DaisyToolchain/0.2.0/arm/arm-none-eabi/include/c++/10.3.1/bits/stl_algobase.h **** 	  __copy_m(__first, __last, __result);
 470:/Library/DaisyToolchain/0.2.0/arm/arm-none-eabi/include/c++/10.3.1/bits/stl_algobase.h **** #endif
 471:/Library/DaisyToolchain/0.2.0/arm/arm-none-eabi/include/c++/10.3.1/bits/stl_algobase.h ****       return std::__copy_move<_IsMove, __memcpyable<_OI, _II>::__value,
 472:/Library/DaisyToolchain/0.2.0/arm/arm-none-eabi/include/c++/10.3.1/bits/stl_algobase.h **** 			      _Category>::__copy_m(__first, __last, __result);
 473:/Library/DaisyToolchain/0.2.0/arm/arm-none-eabi/include/c++/10.3.1/bits/stl_algobase.h ****     }
 474:/Library/DaisyToolchain/0.2.0/arm/arm-none-eabi/include/c++/10.3.1/bits/stl_algobase.h **** 
 475:/Library/DaisyToolchain/0.2.0/arm/arm-none-eabi/include/c++/10.3.1/bits/stl_algobase.h **** _GLIBCXX_BEGIN_NAMESPACE_CONTAINER
 476:/Library/DaisyToolchain/0.2.0/arm/arm-none-eabi/include/c++/10.3.1/bits/stl_algobase.h **** 
 477:/Library/DaisyToolchain/0.2.0/arm/arm-none-eabi/include/c++/10.3.1/bits/stl_algobase.h ****   template<typename _Tp, typename _Ref, typename _Ptr>
 478:/Library/DaisyToolchain/0.2.0/arm/arm-none-eabi/include/c++/10.3.1/bits/stl_algobase.h ****     struct _Deque_iterator;
 479:/Library/DaisyToolchain/0.2.0/arm/arm-none-eabi/include/c++/10.3.1/bits/stl_algobase.h **** 
 480:/Library/DaisyToolchain/0.2.0/arm/arm-none-eabi/include/c++/10.3.1/bits/stl_algobase.h **** _GLIBCXX_END_NAMESPACE_CONTAINER
 481:/Library/DaisyToolchain/0.2.0/arm/arm-none-eabi/include/c++/10.3.1/bits/stl_algobase.h **** 
 482:/Library/DaisyToolchain/0.2.0/arm/arm-none-eabi/include/c++/10.3.1/bits/stl_algobase.h ****   template<bool _IsMove,
 483:/Library/DaisyToolchain/0.2.0/arm/arm-none-eabi/include/c++/10.3.1/bits/stl_algobase.h **** 	   typename _Tp, typename _Ref, typename _Ptr, typename _OI>
 484:/Library/DaisyToolchain/0.2.0/arm/arm-none-eabi/include/c++/10.3.1/bits/stl_algobase.h ****     _OI
ARM GAS  /var/folders/9w/sxkx3zpj5vdcb536f5jvsqpc0000gn/T//ccNfV2cP.s 			page 39


 485:/Library/DaisyToolchain/0.2.0/arm/arm-none-eabi/include/c++/10.3.1/bits/stl_algobase.h ****     __copy_move_a1(_GLIBCXX_STD_C::_Deque_iterator<_Tp, _Ref, _Ptr>,
 486:/Library/DaisyToolchain/0.2.0/arm/arm-none-eabi/include/c++/10.3.1/bits/stl_algobase.h **** 		   _GLIBCXX_STD_C::_Deque_iterator<_Tp, _Ref, _Ptr>,
 487:/Library/DaisyToolchain/0.2.0/arm/arm-none-eabi/include/c++/10.3.1/bits/stl_algobase.h **** 		   _OI);
 488:/Library/DaisyToolchain/0.2.0/arm/arm-none-eabi/include/c++/10.3.1/bits/stl_algobase.h **** 
 489:/Library/DaisyToolchain/0.2.0/arm/arm-none-eabi/include/c++/10.3.1/bits/stl_algobase.h ****   template<bool _IsMove,
 490:/Library/DaisyToolchain/0.2.0/arm/arm-none-eabi/include/c++/10.3.1/bits/stl_algobase.h **** 	   typename _ITp, typename _IRef, typename _IPtr, typename _OTp>
 491:/Library/DaisyToolchain/0.2.0/arm/arm-none-eabi/include/c++/10.3.1/bits/stl_algobase.h ****     _GLIBCXX_STD_C::_Deque_iterator<_OTp, _OTp&, _OTp*>
 492:/Library/DaisyToolchain/0.2.0/arm/arm-none-eabi/include/c++/10.3.1/bits/stl_algobase.h ****     __copy_move_a1(_GLIBCXX_STD_C::_Deque_iterator<_ITp, _IRef, _IPtr>,
 493:/Library/DaisyToolchain/0.2.0/arm/arm-none-eabi/include/c++/10.3.1/bits/stl_algobase.h **** 		   _GLIBCXX_STD_C::_Deque_iterator<_ITp, _IRef, _IPtr>,
 494:/Library/DaisyToolchain/0.2.0/arm/arm-none-eabi/include/c++/10.3.1/bits/stl_algobase.h **** 		   _GLIBCXX_STD_C::_Deque_iterator<_OTp, _OTp&, _OTp*>);
 495:/Library/DaisyToolchain/0.2.0/arm/arm-none-eabi/include/c++/10.3.1/bits/stl_algobase.h **** 
 496:/Library/DaisyToolchain/0.2.0/arm/arm-none-eabi/include/c++/10.3.1/bits/stl_algobase.h ****   template<bool _IsMove, typename _II, typename _Tp>
 497:/Library/DaisyToolchain/0.2.0/arm/arm-none-eabi/include/c++/10.3.1/bits/stl_algobase.h ****     typename __gnu_cxx::__enable_if<
 498:/Library/DaisyToolchain/0.2.0/arm/arm-none-eabi/include/c++/10.3.1/bits/stl_algobase.h ****       __is_random_access_iter<_II>::__value,
 499:/Library/DaisyToolchain/0.2.0/arm/arm-none-eabi/include/c++/10.3.1/bits/stl_algobase.h ****       _GLIBCXX_STD_C::_Deque_iterator<_Tp, _Tp&, _Tp*> >::__type
 500:/Library/DaisyToolchain/0.2.0/arm/arm-none-eabi/include/c++/10.3.1/bits/stl_algobase.h ****     __copy_move_a1(_II, _II, _GLIBCXX_STD_C::_Deque_iterator<_Tp, _Tp&, _Tp*>);
 501:/Library/DaisyToolchain/0.2.0/arm/arm-none-eabi/include/c++/10.3.1/bits/stl_algobase.h **** 
 502:/Library/DaisyToolchain/0.2.0/arm/arm-none-eabi/include/c++/10.3.1/bits/stl_algobase.h ****   template<bool _IsMove, typename _II, typename _OI>
 503:/Library/DaisyToolchain/0.2.0/arm/arm-none-eabi/include/c++/10.3.1/bits/stl_algobase.h ****     _GLIBCXX20_CONSTEXPR
 504:/Library/DaisyToolchain/0.2.0/arm/arm-none-eabi/include/c++/10.3.1/bits/stl_algobase.h ****     inline _OI
 505:/Library/DaisyToolchain/0.2.0/arm/arm-none-eabi/include/c++/10.3.1/bits/stl_algobase.h ****     __copy_move_a1(_II __first, _II __last, _OI __result)
 506:/Library/DaisyToolchain/0.2.0/arm/arm-none-eabi/include/c++/10.3.1/bits/stl_algobase.h ****     { return std::__copy_move_a2<_IsMove>(__first, __last, __result); }
 507:/Library/DaisyToolchain/0.2.0/arm/arm-none-eabi/include/c++/10.3.1/bits/stl_algobase.h **** 
 508:/Library/DaisyToolchain/0.2.0/arm/arm-none-eabi/include/c++/10.3.1/bits/stl_algobase.h ****   template<bool _IsMove, typename _II, typename _OI>
 509:/Library/DaisyToolchain/0.2.0/arm/arm-none-eabi/include/c++/10.3.1/bits/stl_algobase.h ****     _GLIBCXX20_CONSTEXPR
 510:/Library/DaisyToolchain/0.2.0/arm/arm-none-eabi/include/c++/10.3.1/bits/stl_algobase.h ****     inline _OI
 511:/Library/DaisyToolchain/0.2.0/arm/arm-none-eabi/include/c++/10.3.1/bits/stl_algobase.h ****     __copy_move_a(_II __first, _II __last, _OI __result)
 512:/Library/DaisyToolchain/0.2.0/arm/arm-none-eabi/include/c++/10.3.1/bits/stl_algobase.h ****     {
 513:/Library/DaisyToolchain/0.2.0/arm/arm-none-eabi/include/c++/10.3.1/bits/stl_algobase.h ****       return std::__niter_wrap(__result,
 514:/Library/DaisyToolchain/0.2.0/arm/arm-none-eabi/include/c++/10.3.1/bits/stl_algobase.h **** 		std::__copy_move_a1<_IsMove>(std::__niter_base(__first),
 515:/Library/DaisyToolchain/0.2.0/arm/arm-none-eabi/include/c++/10.3.1/bits/stl_algobase.h **** 					     std::__niter_base(__last),
 516:/Library/DaisyToolchain/0.2.0/arm/arm-none-eabi/include/c++/10.3.1/bits/stl_algobase.h **** 					     std::__niter_base(__result)));
 517:/Library/DaisyToolchain/0.2.0/arm/arm-none-eabi/include/c++/10.3.1/bits/stl_algobase.h ****     }
 518:/Library/DaisyToolchain/0.2.0/arm/arm-none-eabi/include/c++/10.3.1/bits/stl_algobase.h **** 
 519:/Library/DaisyToolchain/0.2.0/arm/arm-none-eabi/include/c++/10.3.1/bits/stl_algobase.h ****   template<bool _IsMove,
 520:/Library/DaisyToolchain/0.2.0/arm/arm-none-eabi/include/c++/10.3.1/bits/stl_algobase.h **** 	   typename _Ite, typename _Seq, typename _Cat, typename _OI>
 521:/Library/DaisyToolchain/0.2.0/arm/arm-none-eabi/include/c++/10.3.1/bits/stl_algobase.h ****     _OI
 522:/Library/DaisyToolchain/0.2.0/arm/arm-none-eabi/include/c++/10.3.1/bits/stl_algobase.h ****     __copy_move_a(const ::__gnu_debug::_Safe_iterator<_Ite, _Seq, _Cat>&,
 523:/Library/DaisyToolchain/0.2.0/arm/arm-none-eabi/include/c++/10.3.1/bits/stl_algobase.h **** 		  const ::__gnu_debug::_Safe_iterator<_Ite, _Seq, _Cat>&,
 524:/Library/DaisyToolchain/0.2.0/arm/arm-none-eabi/include/c++/10.3.1/bits/stl_algobase.h **** 		  _OI);
 525:/Library/DaisyToolchain/0.2.0/arm/arm-none-eabi/include/c++/10.3.1/bits/stl_algobase.h **** 
 526:/Library/DaisyToolchain/0.2.0/arm/arm-none-eabi/include/c++/10.3.1/bits/stl_algobase.h ****   template<bool _IsMove,
 527:/Library/DaisyToolchain/0.2.0/arm/arm-none-eabi/include/c++/10.3.1/bits/stl_algobase.h **** 	   typename _II, typename _Ite, typename _Seq, typename _Cat>
 528:/Library/DaisyToolchain/0.2.0/arm/arm-none-eabi/include/c++/10.3.1/bits/stl_algobase.h ****     __gnu_debug::_Safe_iterator<_Ite, _Seq, _Cat>
 529:/Library/DaisyToolchain/0.2.0/arm/arm-none-eabi/include/c++/10.3.1/bits/stl_algobase.h ****     __copy_move_a(_II, _II,
 530:/Library/DaisyToolchain/0.2.0/arm/arm-none-eabi/include/c++/10.3.1/bits/stl_algobase.h **** 		  const ::__gnu_debug::_Safe_iterator<_Ite, _Seq, _Cat>&);
 531:/Library/DaisyToolchain/0.2.0/arm/arm-none-eabi/include/c++/10.3.1/bits/stl_algobase.h **** 
 532:/Library/DaisyToolchain/0.2.0/arm/arm-none-eabi/include/c++/10.3.1/bits/stl_algobase.h ****   template<bool _IsMove,
 533:/Library/DaisyToolchain/0.2.0/arm/arm-none-eabi/include/c++/10.3.1/bits/stl_algobase.h **** 	   typename _IIte, typename _ISeq, typename _ICat,
 534:/Library/DaisyToolchain/0.2.0/arm/arm-none-eabi/include/c++/10.3.1/bits/stl_algobase.h **** 	   typename _OIte, typename _OSeq, typename _OCat>
 535:/Library/DaisyToolchain/0.2.0/arm/arm-none-eabi/include/c++/10.3.1/bits/stl_algobase.h ****     ::__gnu_debug::_Safe_iterator<_OIte, _OSeq, _OCat>
 536:/Library/DaisyToolchain/0.2.0/arm/arm-none-eabi/include/c++/10.3.1/bits/stl_algobase.h ****     __copy_move_a(const ::__gnu_debug::_Safe_iterator<_IIte, _ISeq, _ICat>&,
 537:/Library/DaisyToolchain/0.2.0/arm/arm-none-eabi/include/c++/10.3.1/bits/stl_algobase.h **** 		  const ::__gnu_debug::_Safe_iterator<_IIte, _ISeq, _ICat>&,
 538:/Library/DaisyToolchain/0.2.0/arm/arm-none-eabi/include/c++/10.3.1/bits/stl_algobase.h **** 		  const ::__gnu_debug::_Safe_iterator<_OIte, _OSeq, _OCat>&);
 539:/Library/DaisyToolchain/0.2.0/arm/arm-none-eabi/include/c++/10.3.1/bits/stl_algobase.h **** 
 540:/Library/DaisyToolchain/0.2.0/arm/arm-none-eabi/include/c++/10.3.1/bits/stl_algobase.h ****   /**
 541:/Library/DaisyToolchain/0.2.0/arm/arm-none-eabi/include/c++/10.3.1/bits/stl_algobase.h ****    *  @brief Copies the range [first,last) into result.
ARM GAS  /var/folders/9w/sxkx3zpj5vdcb536f5jvsqpc0000gn/T//ccNfV2cP.s 			page 40


 542:/Library/DaisyToolchain/0.2.0/arm/arm-none-eabi/include/c++/10.3.1/bits/stl_algobase.h ****    *  @ingroup mutating_algorithms
 543:/Library/DaisyToolchain/0.2.0/arm/arm-none-eabi/include/c++/10.3.1/bits/stl_algobase.h ****    *  @param  __first  An input iterator.
 544:/Library/DaisyToolchain/0.2.0/arm/arm-none-eabi/include/c++/10.3.1/bits/stl_algobase.h ****    *  @param  __last   An input iterator.
 545:/Library/DaisyToolchain/0.2.0/arm/arm-none-eabi/include/c++/10.3.1/bits/stl_algobase.h ****    *  @param  __result An output iterator.
 546:/Library/DaisyToolchain/0.2.0/arm/arm-none-eabi/include/c++/10.3.1/bits/stl_algobase.h ****    *  @return   result + (last - first)
 547:/Library/DaisyToolchain/0.2.0/arm/arm-none-eabi/include/c++/10.3.1/bits/stl_algobase.h ****    *
 548:/Library/DaisyToolchain/0.2.0/arm/arm-none-eabi/include/c++/10.3.1/bits/stl_algobase.h ****    *  This inline function will boil down to a call to @c memmove whenever
 549:/Library/DaisyToolchain/0.2.0/arm/arm-none-eabi/include/c++/10.3.1/bits/stl_algobase.h ****    *  possible.  Failing that, if random access iterators are passed, then the
 550:/Library/DaisyToolchain/0.2.0/arm/arm-none-eabi/include/c++/10.3.1/bits/stl_algobase.h ****    *  loop count will be known (and therefore a candidate for compiler
 551:/Library/DaisyToolchain/0.2.0/arm/arm-none-eabi/include/c++/10.3.1/bits/stl_algobase.h ****    *  optimizations such as unrolling).  Result may not be contained within
 552:/Library/DaisyToolchain/0.2.0/arm/arm-none-eabi/include/c++/10.3.1/bits/stl_algobase.h ****    *  [first,last); the copy_backward function should be used instead.
 553:/Library/DaisyToolchain/0.2.0/arm/arm-none-eabi/include/c++/10.3.1/bits/stl_algobase.h ****    *
 554:/Library/DaisyToolchain/0.2.0/arm/arm-none-eabi/include/c++/10.3.1/bits/stl_algobase.h ****    *  Note that the end of the output range is permitted to be contained
 555:/Library/DaisyToolchain/0.2.0/arm/arm-none-eabi/include/c++/10.3.1/bits/stl_algobase.h ****    *  within [first,last).
 556:/Library/DaisyToolchain/0.2.0/arm/arm-none-eabi/include/c++/10.3.1/bits/stl_algobase.h ****   */
 557:/Library/DaisyToolchain/0.2.0/arm/arm-none-eabi/include/c++/10.3.1/bits/stl_algobase.h ****   template<typename _II, typename _OI>
 558:/Library/DaisyToolchain/0.2.0/arm/arm-none-eabi/include/c++/10.3.1/bits/stl_algobase.h ****     _GLIBCXX20_CONSTEXPR
 559:/Library/DaisyToolchain/0.2.0/arm/arm-none-eabi/include/c++/10.3.1/bits/stl_algobase.h ****     inline _OI
 560:/Library/DaisyToolchain/0.2.0/arm/arm-none-eabi/include/c++/10.3.1/bits/stl_algobase.h ****     copy(_II __first, _II __last, _OI __result)
 561:/Library/DaisyToolchain/0.2.0/arm/arm-none-eabi/include/c++/10.3.1/bits/stl_algobase.h ****     {
 562:/Library/DaisyToolchain/0.2.0/arm/arm-none-eabi/include/c++/10.3.1/bits/stl_algobase.h ****       // concept requirements
 563:/Library/DaisyToolchain/0.2.0/arm/arm-none-eabi/include/c++/10.3.1/bits/stl_algobase.h ****       __glibcxx_function_requires(_InputIteratorConcept<_II>)
 564:/Library/DaisyToolchain/0.2.0/arm/arm-none-eabi/include/c++/10.3.1/bits/stl_algobase.h ****       __glibcxx_function_requires(_OutputIteratorConcept<_OI,
 565:/Library/DaisyToolchain/0.2.0/arm/arm-none-eabi/include/c++/10.3.1/bits/stl_algobase.h **** 	    typename iterator_traits<_II>::value_type>)
 566:/Library/DaisyToolchain/0.2.0/arm/arm-none-eabi/include/c++/10.3.1/bits/stl_algobase.h ****       __glibcxx_requires_can_increment_range(__first, __last, __result);
 567:/Library/DaisyToolchain/0.2.0/arm/arm-none-eabi/include/c++/10.3.1/bits/stl_algobase.h **** 
 568:/Library/DaisyToolchain/0.2.0/arm/arm-none-eabi/include/c++/10.3.1/bits/stl_algobase.h ****       return std::__copy_move_a<__is_move_iterator<_II>::__value>
 569:/Library/DaisyToolchain/0.2.0/arm/arm-none-eabi/include/c++/10.3.1/bits/stl_algobase.h **** 	     (std::__miter_base(__first), std::__miter_base(__last), __result);
 570:/Library/DaisyToolchain/0.2.0/arm/arm-none-eabi/include/c++/10.3.1/bits/stl_algobase.h ****     }
 571:/Library/DaisyToolchain/0.2.0/arm/arm-none-eabi/include/c++/10.3.1/bits/stl_algobase.h **** 
 572:/Library/DaisyToolchain/0.2.0/arm/arm-none-eabi/include/c++/10.3.1/bits/stl_algobase.h **** #if __cplusplus >= 201103L
 573:/Library/DaisyToolchain/0.2.0/arm/arm-none-eabi/include/c++/10.3.1/bits/stl_algobase.h ****   /**
 574:/Library/DaisyToolchain/0.2.0/arm/arm-none-eabi/include/c++/10.3.1/bits/stl_algobase.h ****    *  @brief Moves the range [first,last) into result.
 575:/Library/DaisyToolchain/0.2.0/arm/arm-none-eabi/include/c++/10.3.1/bits/stl_algobase.h ****    *  @ingroup mutating_algorithms
 576:/Library/DaisyToolchain/0.2.0/arm/arm-none-eabi/include/c++/10.3.1/bits/stl_algobase.h ****    *  @param  __first  An input iterator.
 577:/Library/DaisyToolchain/0.2.0/arm/arm-none-eabi/include/c++/10.3.1/bits/stl_algobase.h ****    *  @param  __last   An input iterator.
 578:/Library/DaisyToolchain/0.2.0/arm/arm-none-eabi/include/c++/10.3.1/bits/stl_algobase.h ****    *  @param  __result An output iterator.
 579:/Library/DaisyToolchain/0.2.0/arm/arm-none-eabi/include/c++/10.3.1/bits/stl_algobase.h ****    *  @return   result + (last - first)
 580:/Library/DaisyToolchain/0.2.0/arm/arm-none-eabi/include/c++/10.3.1/bits/stl_algobase.h ****    *
 581:/Library/DaisyToolchain/0.2.0/arm/arm-none-eabi/include/c++/10.3.1/bits/stl_algobase.h ****    *  This inline function will boil down to a call to @c memmove whenever
 582:/Library/DaisyToolchain/0.2.0/arm/arm-none-eabi/include/c++/10.3.1/bits/stl_algobase.h ****    *  possible.  Failing that, if random access iterators are passed, then the
 583:/Library/DaisyToolchain/0.2.0/arm/arm-none-eabi/include/c++/10.3.1/bits/stl_algobase.h ****    *  loop count will be known (and therefore a candidate for compiler
 584:/Library/DaisyToolchain/0.2.0/arm/arm-none-eabi/include/c++/10.3.1/bits/stl_algobase.h ****    *  optimizations such as unrolling).  Result may not be contained within
 585:/Library/DaisyToolchain/0.2.0/arm/arm-none-eabi/include/c++/10.3.1/bits/stl_algobase.h ****    *  [first,last); the move_backward function should be used instead.
 586:/Library/DaisyToolchain/0.2.0/arm/arm-none-eabi/include/c++/10.3.1/bits/stl_algobase.h ****    *
 587:/Library/DaisyToolchain/0.2.0/arm/arm-none-eabi/include/c++/10.3.1/bits/stl_algobase.h ****    *  Note that the end of the output range is permitted to be contained
 588:/Library/DaisyToolchain/0.2.0/arm/arm-none-eabi/include/c++/10.3.1/bits/stl_algobase.h ****    *  within [first,last).
 589:/Library/DaisyToolchain/0.2.0/arm/arm-none-eabi/include/c++/10.3.1/bits/stl_algobase.h ****   */
 590:/Library/DaisyToolchain/0.2.0/arm/arm-none-eabi/include/c++/10.3.1/bits/stl_algobase.h ****   template<typename _II, typename _OI>
 591:/Library/DaisyToolchain/0.2.0/arm/arm-none-eabi/include/c++/10.3.1/bits/stl_algobase.h ****     _GLIBCXX20_CONSTEXPR
 592:/Library/DaisyToolchain/0.2.0/arm/arm-none-eabi/include/c++/10.3.1/bits/stl_algobase.h ****     inline _OI
 593:/Library/DaisyToolchain/0.2.0/arm/arm-none-eabi/include/c++/10.3.1/bits/stl_algobase.h ****     move(_II __first, _II __last, _OI __result)
 594:/Library/DaisyToolchain/0.2.0/arm/arm-none-eabi/include/c++/10.3.1/bits/stl_algobase.h ****     {
 595:/Library/DaisyToolchain/0.2.0/arm/arm-none-eabi/include/c++/10.3.1/bits/stl_algobase.h ****       // concept requirements
 596:/Library/DaisyToolchain/0.2.0/arm/arm-none-eabi/include/c++/10.3.1/bits/stl_algobase.h ****       __glibcxx_function_requires(_InputIteratorConcept<_II>)
 597:/Library/DaisyToolchain/0.2.0/arm/arm-none-eabi/include/c++/10.3.1/bits/stl_algobase.h ****       __glibcxx_function_requires(_OutputIteratorConcept<_OI,
 598:/Library/DaisyToolchain/0.2.0/arm/arm-none-eabi/include/c++/10.3.1/bits/stl_algobase.h **** 	    typename iterator_traits<_II>::value_type>)
ARM GAS  /var/folders/9w/sxkx3zpj5vdcb536f5jvsqpc0000gn/T//ccNfV2cP.s 			page 41


 599:/Library/DaisyToolchain/0.2.0/arm/arm-none-eabi/include/c++/10.3.1/bits/stl_algobase.h ****       __glibcxx_requires_can_increment_range(__first, __last, __result);
 600:/Library/DaisyToolchain/0.2.0/arm/arm-none-eabi/include/c++/10.3.1/bits/stl_algobase.h **** 
 601:/Library/DaisyToolchain/0.2.0/arm/arm-none-eabi/include/c++/10.3.1/bits/stl_algobase.h ****       return std::__copy_move_a<true>(std::__miter_base(__first),
 602:/Library/DaisyToolchain/0.2.0/arm/arm-none-eabi/include/c++/10.3.1/bits/stl_algobase.h **** 				      std::__miter_base(__last), __result);
 603:/Library/DaisyToolchain/0.2.0/arm/arm-none-eabi/include/c++/10.3.1/bits/stl_algobase.h ****     }
 604:/Library/DaisyToolchain/0.2.0/arm/arm-none-eabi/include/c++/10.3.1/bits/stl_algobase.h **** 
 605:/Library/DaisyToolchain/0.2.0/arm/arm-none-eabi/include/c++/10.3.1/bits/stl_algobase.h **** #define _GLIBCXX_MOVE3(_Tp, _Up, _Vp) std::move(_Tp, _Up, _Vp)
 606:/Library/DaisyToolchain/0.2.0/arm/arm-none-eabi/include/c++/10.3.1/bits/stl_algobase.h **** #else
 607:/Library/DaisyToolchain/0.2.0/arm/arm-none-eabi/include/c++/10.3.1/bits/stl_algobase.h **** #define _GLIBCXX_MOVE3(_Tp, _Up, _Vp) std::copy(_Tp, _Up, _Vp)
 608:/Library/DaisyToolchain/0.2.0/arm/arm-none-eabi/include/c++/10.3.1/bits/stl_algobase.h **** #endif
 609:/Library/DaisyToolchain/0.2.0/arm/arm-none-eabi/include/c++/10.3.1/bits/stl_algobase.h **** 
 610:/Library/DaisyToolchain/0.2.0/arm/arm-none-eabi/include/c++/10.3.1/bits/stl_algobase.h ****   template<bool _IsMove, bool _IsSimple, typename _Category>
 611:/Library/DaisyToolchain/0.2.0/arm/arm-none-eabi/include/c++/10.3.1/bits/stl_algobase.h ****     struct __copy_move_backward
 612:/Library/DaisyToolchain/0.2.0/arm/arm-none-eabi/include/c++/10.3.1/bits/stl_algobase.h ****     {
 613:/Library/DaisyToolchain/0.2.0/arm/arm-none-eabi/include/c++/10.3.1/bits/stl_algobase.h ****       template<typename _BI1, typename _BI2>
 614:/Library/DaisyToolchain/0.2.0/arm/arm-none-eabi/include/c++/10.3.1/bits/stl_algobase.h **** 	_GLIBCXX20_CONSTEXPR
 615:/Library/DaisyToolchain/0.2.0/arm/arm-none-eabi/include/c++/10.3.1/bits/stl_algobase.h **** 	static _BI2
 616:/Library/DaisyToolchain/0.2.0/arm/arm-none-eabi/include/c++/10.3.1/bits/stl_algobase.h **** 	__copy_move_b(_BI1 __first, _BI1 __last, _BI2 __result)
 617:/Library/DaisyToolchain/0.2.0/arm/arm-none-eabi/include/c++/10.3.1/bits/stl_algobase.h **** 	{
 618:/Library/DaisyToolchain/0.2.0/arm/arm-none-eabi/include/c++/10.3.1/bits/stl_algobase.h **** 	  while (__first != __last)
 619:/Library/DaisyToolchain/0.2.0/arm/arm-none-eabi/include/c++/10.3.1/bits/stl_algobase.h **** 	    *--__result = *--__last;
 620:/Library/DaisyToolchain/0.2.0/arm/arm-none-eabi/include/c++/10.3.1/bits/stl_algobase.h **** 	  return __result;
 621:/Library/DaisyToolchain/0.2.0/arm/arm-none-eabi/include/c++/10.3.1/bits/stl_algobase.h **** 	}
 622:/Library/DaisyToolchain/0.2.0/arm/arm-none-eabi/include/c++/10.3.1/bits/stl_algobase.h ****     };
 623:/Library/DaisyToolchain/0.2.0/arm/arm-none-eabi/include/c++/10.3.1/bits/stl_algobase.h **** 
 624:/Library/DaisyToolchain/0.2.0/arm/arm-none-eabi/include/c++/10.3.1/bits/stl_algobase.h **** #if __cplusplus >= 201103L
 625:/Library/DaisyToolchain/0.2.0/arm/arm-none-eabi/include/c++/10.3.1/bits/stl_algobase.h ****   template<typename _Category>
 626:/Library/DaisyToolchain/0.2.0/arm/arm-none-eabi/include/c++/10.3.1/bits/stl_algobase.h ****     struct __copy_move_backward<true, false, _Category>
 627:/Library/DaisyToolchain/0.2.0/arm/arm-none-eabi/include/c++/10.3.1/bits/stl_algobase.h ****     {
 628:/Library/DaisyToolchain/0.2.0/arm/arm-none-eabi/include/c++/10.3.1/bits/stl_algobase.h ****       template<typename _BI1, typename _BI2>
 629:/Library/DaisyToolchain/0.2.0/arm/arm-none-eabi/include/c++/10.3.1/bits/stl_algobase.h **** 	_GLIBCXX20_CONSTEXPR
 630:/Library/DaisyToolchain/0.2.0/arm/arm-none-eabi/include/c++/10.3.1/bits/stl_algobase.h **** 	static _BI2
 631:/Library/DaisyToolchain/0.2.0/arm/arm-none-eabi/include/c++/10.3.1/bits/stl_algobase.h **** 	__copy_move_b(_BI1 __first, _BI1 __last, _BI2 __result)
 632:/Library/DaisyToolchain/0.2.0/arm/arm-none-eabi/include/c++/10.3.1/bits/stl_algobase.h **** 	{
 633:/Library/DaisyToolchain/0.2.0/arm/arm-none-eabi/include/c++/10.3.1/bits/stl_algobase.h **** 	  while (__first != __last)
 634:/Library/DaisyToolchain/0.2.0/arm/arm-none-eabi/include/c++/10.3.1/bits/stl_algobase.h **** 	    *--__result = std::move(*--__last);
 635:/Library/DaisyToolchain/0.2.0/arm/arm-none-eabi/include/c++/10.3.1/bits/stl_algobase.h **** 	  return __result;
 636:/Library/DaisyToolchain/0.2.0/arm/arm-none-eabi/include/c++/10.3.1/bits/stl_algobase.h **** 	}
 637:/Library/DaisyToolchain/0.2.0/arm/arm-none-eabi/include/c++/10.3.1/bits/stl_algobase.h ****     };
 638:/Library/DaisyToolchain/0.2.0/arm/arm-none-eabi/include/c++/10.3.1/bits/stl_algobase.h **** #endif
 639:/Library/DaisyToolchain/0.2.0/arm/arm-none-eabi/include/c++/10.3.1/bits/stl_algobase.h **** 
 640:/Library/DaisyToolchain/0.2.0/arm/arm-none-eabi/include/c++/10.3.1/bits/stl_algobase.h ****   template<>
 641:/Library/DaisyToolchain/0.2.0/arm/arm-none-eabi/include/c++/10.3.1/bits/stl_algobase.h ****     struct __copy_move_backward<false, false, random_access_iterator_tag>
 642:/Library/DaisyToolchain/0.2.0/arm/arm-none-eabi/include/c++/10.3.1/bits/stl_algobase.h ****     {
 643:/Library/DaisyToolchain/0.2.0/arm/arm-none-eabi/include/c++/10.3.1/bits/stl_algobase.h ****       template<typename _BI1, typename _BI2>
 644:/Library/DaisyToolchain/0.2.0/arm/arm-none-eabi/include/c++/10.3.1/bits/stl_algobase.h **** 	_GLIBCXX20_CONSTEXPR
 645:/Library/DaisyToolchain/0.2.0/arm/arm-none-eabi/include/c++/10.3.1/bits/stl_algobase.h **** 	static _BI2
 646:/Library/DaisyToolchain/0.2.0/arm/arm-none-eabi/include/c++/10.3.1/bits/stl_algobase.h **** 	__copy_move_b(_BI1 __first, _BI1 __last, _BI2 __result)
 647:/Library/DaisyToolchain/0.2.0/arm/arm-none-eabi/include/c++/10.3.1/bits/stl_algobase.h **** 	{
 648:/Library/DaisyToolchain/0.2.0/arm/arm-none-eabi/include/c++/10.3.1/bits/stl_algobase.h **** 	  typename iterator_traits<_BI1>::difference_type
 649:/Library/DaisyToolchain/0.2.0/arm/arm-none-eabi/include/c++/10.3.1/bits/stl_algobase.h **** 	    __n = __last - __first;
 650:/Library/DaisyToolchain/0.2.0/arm/arm-none-eabi/include/c++/10.3.1/bits/stl_algobase.h **** 	  for (; __n > 0; --__n)
 651:/Library/DaisyToolchain/0.2.0/arm/arm-none-eabi/include/c++/10.3.1/bits/stl_algobase.h **** 	    *--__result = *--__last;
 652:/Library/DaisyToolchain/0.2.0/arm/arm-none-eabi/include/c++/10.3.1/bits/stl_algobase.h **** 	  return __result;
 653:/Library/DaisyToolchain/0.2.0/arm/arm-none-eabi/include/c++/10.3.1/bits/stl_algobase.h **** 	}
 654:/Library/DaisyToolchain/0.2.0/arm/arm-none-eabi/include/c++/10.3.1/bits/stl_algobase.h ****     };
 655:/Library/DaisyToolchain/0.2.0/arm/arm-none-eabi/include/c++/10.3.1/bits/stl_algobase.h **** 
ARM GAS  /var/folders/9w/sxkx3zpj5vdcb536f5jvsqpc0000gn/T//ccNfV2cP.s 			page 42


 656:/Library/DaisyToolchain/0.2.0/arm/arm-none-eabi/include/c++/10.3.1/bits/stl_algobase.h **** #if __cplusplus >= 201103L
 657:/Library/DaisyToolchain/0.2.0/arm/arm-none-eabi/include/c++/10.3.1/bits/stl_algobase.h ****   template<>
 658:/Library/DaisyToolchain/0.2.0/arm/arm-none-eabi/include/c++/10.3.1/bits/stl_algobase.h ****     struct __copy_move_backward<true, false, random_access_iterator_tag>
 659:/Library/DaisyToolchain/0.2.0/arm/arm-none-eabi/include/c++/10.3.1/bits/stl_algobase.h ****     {
 660:/Library/DaisyToolchain/0.2.0/arm/arm-none-eabi/include/c++/10.3.1/bits/stl_algobase.h ****       template<typename _BI1, typename _BI2>
 661:/Library/DaisyToolchain/0.2.0/arm/arm-none-eabi/include/c++/10.3.1/bits/stl_algobase.h **** 	_GLIBCXX20_CONSTEXPR
 662:/Library/DaisyToolchain/0.2.0/arm/arm-none-eabi/include/c++/10.3.1/bits/stl_algobase.h **** 	static _BI2
 663:/Library/DaisyToolchain/0.2.0/arm/arm-none-eabi/include/c++/10.3.1/bits/stl_algobase.h **** 	__copy_move_b(_BI1 __first, _BI1 __last, _BI2 __result)
 664:/Library/DaisyToolchain/0.2.0/arm/arm-none-eabi/include/c++/10.3.1/bits/stl_algobase.h **** 	{
 665:/Library/DaisyToolchain/0.2.0/arm/arm-none-eabi/include/c++/10.3.1/bits/stl_algobase.h **** 	  typename iterator_traits<_BI1>::difference_type
 666:/Library/DaisyToolchain/0.2.0/arm/arm-none-eabi/include/c++/10.3.1/bits/stl_algobase.h **** 	    __n = __last - __first;
 667:/Library/DaisyToolchain/0.2.0/arm/arm-none-eabi/include/c++/10.3.1/bits/stl_algobase.h **** 	  for (; __n > 0; --__n)
 668:/Library/DaisyToolchain/0.2.0/arm/arm-none-eabi/include/c++/10.3.1/bits/stl_algobase.h **** 	    *--__result = std::move(*--__last);
 669:/Library/DaisyToolchain/0.2.0/arm/arm-none-eabi/include/c++/10.3.1/bits/stl_algobase.h **** 	  return __result;
 670:/Library/DaisyToolchain/0.2.0/arm/arm-none-eabi/include/c++/10.3.1/bits/stl_algobase.h **** 	}
 671:/Library/DaisyToolchain/0.2.0/arm/arm-none-eabi/include/c++/10.3.1/bits/stl_algobase.h ****     };
 672:/Library/DaisyToolchain/0.2.0/arm/arm-none-eabi/include/c++/10.3.1/bits/stl_algobase.h **** #endif
 673:/Library/DaisyToolchain/0.2.0/arm/arm-none-eabi/include/c++/10.3.1/bits/stl_algobase.h **** 
 674:/Library/DaisyToolchain/0.2.0/arm/arm-none-eabi/include/c++/10.3.1/bits/stl_algobase.h ****   template<bool _IsMove>
 675:/Library/DaisyToolchain/0.2.0/arm/arm-none-eabi/include/c++/10.3.1/bits/stl_algobase.h ****     struct __copy_move_backward<_IsMove, true, random_access_iterator_tag>
 676:/Library/DaisyToolchain/0.2.0/arm/arm-none-eabi/include/c++/10.3.1/bits/stl_algobase.h ****     {
 677:/Library/DaisyToolchain/0.2.0/arm/arm-none-eabi/include/c++/10.3.1/bits/stl_algobase.h ****       template<typename _Tp>
 678:/Library/DaisyToolchain/0.2.0/arm/arm-none-eabi/include/c++/10.3.1/bits/stl_algobase.h **** 	_GLIBCXX20_CONSTEXPR
 679:/Library/DaisyToolchain/0.2.0/arm/arm-none-eabi/include/c++/10.3.1/bits/stl_algobase.h **** 	static _Tp*
 680:/Library/DaisyToolchain/0.2.0/arm/arm-none-eabi/include/c++/10.3.1/bits/stl_algobase.h **** 	__copy_move_b(const _Tp* __first, const _Tp* __last, _Tp* __result)
 681:/Library/DaisyToolchain/0.2.0/arm/arm-none-eabi/include/c++/10.3.1/bits/stl_algobase.h **** 	{
 682:/Library/DaisyToolchain/0.2.0/arm/arm-none-eabi/include/c++/10.3.1/bits/stl_algobase.h **** #if __cplusplus >= 201103L
 683:/Library/DaisyToolchain/0.2.0/arm/arm-none-eabi/include/c++/10.3.1/bits/stl_algobase.h **** 	  using __assignable = conditional<_IsMove,
 684:/Library/DaisyToolchain/0.2.0/arm/arm-none-eabi/include/c++/10.3.1/bits/stl_algobase.h **** 					   is_move_assignable<_Tp>,
 685:/Library/DaisyToolchain/0.2.0/arm/arm-none-eabi/include/c++/10.3.1/bits/stl_algobase.h **** 					   is_copy_assignable<_Tp>>;
 686:/Library/DaisyToolchain/0.2.0/arm/arm-none-eabi/include/c++/10.3.1/bits/stl_algobase.h **** 	  // trivial types can have deleted assignment
 687:/Library/DaisyToolchain/0.2.0/arm/arm-none-eabi/include/c++/10.3.1/bits/stl_algobase.h **** 	  static_assert( __assignable::type::value, "type is not assignable" );
 688:/Library/DaisyToolchain/0.2.0/arm/arm-none-eabi/include/c++/10.3.1/bits/stl_algobase.h **** #endif
 689:/Library/DaisyToolchain/0.2.0/arm/arm-none-eabi/include/c++/10.3.1/bits/stl_algobase.h **** 	  const ptrdiff_t _Num = __last - __first;
 690:/Library/DaisyToolchain/0.2.0/arm/arm-none-eabi/include/c++/10.3.1/bits/stl_algobase.h **** 	  if (_Num)
 691:/Library/DaisyToolchain/0.2.0/arm/arm-none-eabi/include/c++/10.3.1/bits/stl_algobase.h **** 	    __builtin_memmove(__result - _Num, __first, sizeof(_Tp) * _Num);
 692:/Library/DaisyToolchain/0.2.0/arm/arm-none-eabi/include/c++/10.3.1/bits/stl_algobase.h **** 	  return __result - _Num;
 693:/Library/DaisyToolchain/0.2.0/arm/arm-none-eabi/include/c++/10.3.1/bits/stl_algobase.h **** 	}
 694:/Library/DaisyToolchain/0.2.0/arm/arm-none-eabi/include/c++/10.3.1/bits/stl_algobase.h ****     };
 695:/Library/DaisyToolchain/0.2.0/arm/arm-none-eabi/include/c++/10.3.1/bits/stl_algobase.h **** 
 696:/Library/DaisyToolchain/0.2.0/arm/arm-none-eabi/include/c++/10.3.1/bits/stl_algobase.h ****   template<bool _IsMove, typename _BI1, typename _BI2>
 697:/Library/DaisyToolchain/0.2.0/arm/arm-none-eabi/include/c++/10.3.1/bits/stl_algobase.h ****     _GLIBCXX20_CONSTEXPR
 698:/Library/DaisyToolchain/0.2.0/arm/arm-none-eabi/include/c++/10.3.1/bits/stl_algobase.h ****     inline _BI2
 699:/Library/DaisyToolchain/0.2.0/arm/arm-none-eabi/include/c++/10.3.1/bits/stl_algobase.h ****     __copy_move_backward_a2(_BI1 __first, _BI1 __last, _BI2 __result)
 700:/Library/DaisyToolchain/0.2.0/arm/arm-none-eabi/include/c++/10.3.1/bits/stl_algobase.h ****     {
 701:/Library/DaisyToolchain/0.2.0/arm/arm-none-eabi/include/c++/10.3.1/bits/stl_algobase.h ****       typedef typename iterator_traits<_BI1>::iterator_category _Category;
 702:/Library/DaisyToolchain/0.2.0/arm/arm-none-eabi/include/c++/10.3.1/bits/stl_algobase.h **** #ifdef __cpp_lib_is_constant_evaluated
 703:/Library/DaisyToolchain/0.2.0/arm/arm-none-eabi/include/c++/10.3.1/bits/stl_algobase.h ****       if (std::is_constant_evaluated())
 704:/Library/DaisyToolchain/0.2.0/arm/arm-none-eabi/include/c++/10.3.1/bits/stl_algobase.h **** 	return std::__copy_move_backward<_IsMove, false, _Category>::
 705:/Library/DaisyToolchain/0.2.0/arm/arm-none-eabi/include/c++/10.3.1/bits/stl_algobase.h **** 	  __copy_move_b(__first, __last, __result);
 706:/Library/DaisyToolchain/0.2.0/arm/arm-none-eabi/include/c++/10.3.1/bits/stl_algobase.h **** #endif
 707:/Library/DaisyToolchain/0.2.0/arm/arm-none-eabi/include/c++/10.3.1/bits/stl_algobase.h ****       return std::__copy_move_backward<_IsMove,
 708:/Library/DaisyToolchain/0.2.0/arm/arm-none-eabi/include/c++/10.3.1/bits/stl_algobase.h **** 				       __memcpyable<_BI2, _BI1>::__value,
 709:/Library/DaisyToolchain/0.2.0/arm/arm-none-eabi/include/c++/10.3.1/bits/stl_algobase.h **** 				       _Category>::__copy_move_b(__first,
 710:/Library/DaisyToolchain/0.2.0/arm/arm-none-eabi/include/c++/10.3.1/bits/stl_algobase.h **** 								 __last,
 711:/Library/DaisyToolchain/0.2.0/arm/arm-none-eabi/include/c++/10.3.1/bits/stl_algobase.h **** 								 __result);
 712:/Library/DaisyToolchain/0.2.0/arm/arm-none-eabi/include/c++/10.3.1/bits/stl_algobase.h ****     }
ARM GAS  /var/folders/9w/sxkx3zpj5vdcb536f5jvsqpc0000gn/T//ccNfV2cP.s 			page 43


 713:/Library/DaisyToolchain/0.2.0/arm/arm-none-eabi/include/c++/10.3.1/bits/stl_algobase.h **** 
 714:/Library/DaisyToolchain/0.2.0/arm/arm-none-eabi/include/c++/10.3.1/bits/stl_algobase.h ****   template<bool _IsMove, typename _BI1, typename _BI2>
 715:/Library/DaisyToolchain/0.2.0/arm/arm-none-eabi/include/c++/10.3.1/bits/stl_algobase.h ****     _GLIBCXX20_CONSTEXPR
 716:/Library/DaisyToolchain/0.2.0/arm/arm-none-eabi/include/c++/10.3.1/bits/stl_algobase.h ****     inline _BI2
 717:/Library/DaisyToolchain/0.2.0/arm/arm-none-eabi/include/c++/10.3.1/bits/stl_algobase.h ****     __copy_move_backward_a1(_BI1 __first, _BI1 __last, _BI2 __result)
 718:/Library/DaisyToolchain/0.2.0/arm/arm-none-eabi/include/c++/10.3.1/bits/stl_algobase.h ****     { return std::__copy_move_backward_a2<_IsMove>(__first, __last, __result); }
 719:/Library/DaisyToolchain/0.2.0/arm/arm-none-eabi/include/c++/10.3.1/bits/stl_algobase.h **** 
 720:/Library/DaisyToolchain/0.2.0/arm/arm-none-eabi/include/c++/10.3.1/bits/stl_algobase.h ****   template<bool _IsMove,
 721:/Library/DaisyToolchain/0.2.0/arm/arm-none-eabi/include/c++/10.3.1/bits/stl_algobase.h **** 	   typename _Tp, typename _Ref, typename _Ptr, typename _OI>
 722:/Library/DaisyToolchain/0.2.0/arm/arm-none-eabi/include/c++/10.3.1/bits/stl_algobase.h ****     _OI
 723:/Library/DaisyToolchain/0.2.0/arm/arm-none-eabi/include/c++/10.3.1/bits/stl_algobase.h ****     __copy_move_backward_a1(_GLIBCXX_STD_C::_Deque_iterator<_Tp, _Ref, _Ptr>,
 724:/Library/DaisyToolchain/0.2.0/arm/arm-none-eabi/include/c++/10.3.1/bits/stl_algobase.h **** 			    _GLIBCXX_STD_C::_Deque_iterator<_Tp, _Ref, _Ptr>,
 725:/Library/DaisyToolchain/0.2.0/arm/arm-none-eabi/include/c++/10.3.1/bits/stl_algobase.h **** 			    _OI);
 726:/Library/DaisyToolchain/0.2.0/arm/arm-none-eabi/include/c++/10.3.1/bits/stl_algobase.h **** 
 727:/Library/DaisyToolchain/0.2.0/arm/arm-none-eabi/include/c++/10.3.1/bits/stl_algobase.h ****   template<bool _IsMove,
 728:/Library/DaisyToolchain/0.2.0/arm/arm-none-eabi/include/c++/10.3.1/bits/stl_algobase.h **** 	   typename _ITp, typename _IRef, typename _IPtr, typename _OTp>
 729:/Library/DaisyToolchain/0.2.0/arm/arm-none-eabi/include/c++/10.3.1/bits/stl_algobase.h ****     _GLIBCXX_STD_C::_Deque_iterator<_OTp, _OTp&, _OTp*>
 730:/Library/DaisyToolchain/0.2.0/arm/arm-none-eabi/include/c++/10.3.1/bits/stl_algobase.h ****     __copy_move_backward_a1(
 731:/Library/DaisyToolchain/0.2.0/arm/arm-none-eabi/include/c++/10.3.1/bits/stl_algobase.h **** 			_GLIBCXX_STD_C::_Deque_iterator<_ITp, _IRef, _IPtr>,
 732:/Library/DaisyToolchain/0.2.0/arm/arm-none-eabi/include/c++/10.3.1/bits/stl_algobase.h **** 			_GLIBCXX_STD_C::_Deque_iterator<_ITp, _IRef, _IPtr>,
 733:/Library/DaisyToolchain/0.2.0/arm/arm-none-eabi/include/c++/10.3.1/bits/stl_algobase.h **** 			_GLIBCXX_STD_C::_Deque_iterator<_OTp, _OTp&, _OTp*>);
 734:/Library/DaisyToolchain/0.2.0/arm/arm-none-eabi/include/c++/10.3.1/bits/stl_algobase.h **** 
 735:/Library/DaisyToolchain/0.2.0/arm/arm-none-eabi/include/c++/10.3.1/bits/stl_algobase.h ****   template<bool _IsMove, typename _II, typename _Tp>
 736:/Library/DaisyToolchain/0.2.0/arm/arm-none-eabi/include/c++/10.3.1/bits/stl_algobase.h ****     typename __gnu_cxx::__enable_if<
 737:/Library/DaisyToolchain/0.2.0/arm/arm-none-eabi/include/c++/10.3.1/bits/stl_algobase.h ****       __is_random_access_iter<_II>::__value,
 738:/Library/DaisyToolchain/0.2.0/arm/arm-none-eabi/include/c++/10.3.1/bits/stl_algobase.h ****       _GLIBCXX_STD_C::_Deque_iterator<_Tp, _Tp&, _Tp*> >::__type
 739:/Library/DaisyToolchain/0.2.0/arm/arm-none-eabi/include/c++/10.3.1/bits/stl_algobase.h ****     __copy_move_backward_a1(_II, _II,
 740:/Library/DaisyToolchain/0.2.0/arm/arm-none-eabi/include/c++/10.3.1/bits/stl_algobase.h **** 			    _GLIBCXX_STD_C::_Deque_iterator<_Tp, _Tp&, _Tp*>);
 741:/Library/DaisyToolchain/0.2.0/arm/arm-none-eabi/include/c++/10.3.1/bits/stl_algobase.h **** 
 742:/Library/DaisyToolchain/0.2.0/arm/arm-none-eabi/include/c++/10.3.1/bits/stl_algobase.h ****   template<bool _IsMove, typename _II, typename _OI>
 743:/Library/DaisyToolchain/0.2.0/arm/arm-none-eabi/include/c++/10.3.1/bits/stl_algobase.h ****     _GLIBCXX20_CONSTEXPR
 744:/Library/DaisyToolchain/0.2.0/arm/arm-none-eabi/include/c++/10.3.1/bits/stl_algobase.h ****     inline _OI
 745:/Library/DaisyToolchain/0.2.0/arm/arm-none-eabi/include/c++/10.3.1/bits/stl_algobase.h ****     __copy_move_backward_a(_II __first, _II __last, _OI __result)
 746:/Library/DaisyToolchain/0.2.0/arm/arm-none-eabi/include/c++/10.3.1/bits/stl_algobase.h ****     {
 747:/Library/DaisyToolchain/0.2.0/arm/arm-none-eabi/include/c++/10.3.1/bits/stl_algobase.h ****       return std::__niter_wrap(__result,
 748:/Library/DaisyToolchain/0.2.0/arm/arm-none-eabi/include/c++/10.3.1/bits/stl_algobase.h **** 		std::__copy_move_backward_a1<_IsMove>
 749:/Library/DaisyToolchain/0.2.0/arm/arm-none-eabi/include/c++/10.3.1/bits/stl_algobase.h **** 		  (std::__niter_base(__first), std::__niter_base(__last),
 750:/Library/DaisyToolchain/0.2.0/arm/arm-none-eabi/include/c++/10.3.1/bits/stl_algobase.h **** 		   std::__niter_base(__result)));
 751:/Library/DaisyToolchain/0.2.0/arm/arm-none-eabi/include/c++/10.3.1/bits/stl_algobase.h ****     }
 752:/Library/DaisyToolchain/0.2.0/arm/arm-none-eabi/include/c++/10.3.1/bits/stl_algobase.h **** 
 753:/Library/DaisyToolchain/0.2.0/arm/arm-none-eabi/include/c++/10.3.1/bits/stl_algobase.h ****   template<bool _IsMove,
 754:/Library/DaisyToolchain/0.2.0/arm/arm-none-eabi/include/c++/10.3.1/bits/stl_algobase.h **** 	   typename _Ite, typename _Seq, typename _Cat, typename _OI>
 755:/Library/DaisyToolchain/0.2.0/arm/arm-none-eabi/include/c++/10.3.1/bits/stl_algobase.h ****     _OI
 756:/Library/DaisyToolchain/0.2.0/arm/arm-none-eabi/include/c++/10.3.1/bits/stl_algobase.h ****     __copy_move_backward_a(
 757:/Library/DaisyToolchain/0.2.0/arm/arm-none-eabi/include/c++/10.3.1/bits/stl_algobase.h **** 		const ::__gnu_debug::_Safe_iterator<_Ite, _Seq, _Cat>&,
 758:/Library/DaisyToolchain/0.2.0/arm/arm-none-eabi/include/c++/10.3.1/bits/stl_algobase.h **** 		const ::__gnu_debug::_Safe_iterator<_Ite, _Seq, _Cat>&,
 759:/Library/DaisyToolchain/0.2.0/arm/arm-none-eabi/include/c++/10.3.1/bits/stl_algobase.h **** 		_OI);
 760:/Library/DaisyToolchain/0.2.0/arm/arm-none-eabi/include/c++/10.3.1/bits/stl_algobase.h **** 
 761:/Library/DaisyToolchain/0.2.0/arm/arm-none-eabi/include/c++/10.3.1/bits/stl_algobase.h ****   template<bool _IsMove,
 762:/Library/DaisyToolchain/0.2.0/arm/arm-none-eabi/include/c++/10.3.1/bits/stl_algobase.h **** 	   typename _II, typename _Ite, typename _Seq, typename _Cat>
 763:/Library/DaisyToolchain/0.2.0/arm/arm-none-eabi/include/c++/10.3.1/bits/stl_algobase.h ****     __gnu_debug::_Safe_iterator<_Ite, _Seq, _Cat>
 764:/Library/DaisyToolchain/0.2.0/arm/arm-none-eabi/include/c++/10.3.1/bits/stl_algobase.h ****     __copy_move_backward_a(_II, _II,
 765:/Library/DaisyToolchain/0.2.0/arm/arm-none-eabi/include/c++/10.3.1/bits/stl_algobase.h **** 		const ::__gnu_debug::_Safe_iterator<_Ite, _Seq, _Cat>&);
 766:/Library/DaisyToolchain/0.2.0/arm/arm-none-eabi/include/c++/10.3.1/bits/stl_algobase.h **** 
 767:/Library/DaisyToolchain/0.2.0/arm/arm-none-eabi/include/c++/10.3.1/bits/stl_algobase.h ****   template<bool _IsMove,
 768:/Library/DaisyToolchain/0.2.0/arm/arm-none-eabi/include/c++/10.3.1/bits/stl_algobase.h **** 	   typename _IIte, typename _ISeq, typename _ICat,
 769:/Library/DaisyToolchain/0.2.0/arm/arm-none-eabi/include/c++/10.3.1/bits/stl_algobase.h **** 	   typename _OIte, typename _OSeq, typename _OCat>
ARM GAS  /var/folders/9w/sxkx3zpj5vdcb536f5jvsqpc0000gn/T//ccNfV2cP.s 			page 44


 770:/Library/DaisyToolchain/0.2.0/arm/arm-none-eabi/include/c++/10.3.1/bits/stl_algobase.h ****     ::__gnu_debug::_Safe_iterator<_OIte, _OSeq, _OCat>
 771:/Library/DaisyToolchain/0.2.0/arm/arm-none-eabi/include/c++/10.3.1/bits/stl_algobase.h ****     __copy_move_backward_a(
 772:/Library/DaisyToolchain/0.2.0/arm/arm-none-eabi/include/c++/10.3.1/bits/stl_algobase.h **** 		const ::__gnu_debug::_Safe_iterator<_IIte, _ISeq, _ICat>&,
 773:/Library/DaisyToolchain/0.2.0/arm/arm-none-eabi/include/c++/10.3.1/bits/stl_algobase.h **** 		const ::__gnu_debug::_Safe_iterator<_IIte, _ISeq, _ICat>&,
 774:/Library/DaisyToolchain/0.2.0/arm/arm-none-eabi/include/c++/10.3.1/bits/stl_algobase.h **** 		const ::__gnu_debug::_Safe_iterator<_OIte, _OSeq, _OCat>&);
 775:/Library/DaisyToolchain/0.2.0/arm/arm-none-eabi/include/c++/10.3.1/bits/stl_algobase.h **** 
 776:/Library/DaisyToolchain/0.2.0/arm/arm-none-eabi/include/c++/10.3.1/bits/stl_algobase.h ****   /**
 777:/Library/DaisyToolchain/0.2.0/arm/arm-none-eabi/include/c++/10.3.1/bits/stl_algobase.h ****    *  @brief Copies the range [first,last) into result.
 778:/Library/DaisyToolchain/0.2.0/arm/arm-none-eabi/include/c++/10.3.1/bits/stl_algobase.h ****    *  @ingroup mutating_algorithms
 779:/Library/DaisyToolchain/0.2.0/arm/arm-none-eabi/include/c++/10.3.1/bits/stl_algobase.h ****    *  @param  __first  A bidirectional iterator.
 780:/Library/DaisyToolchain/0.2.0/arm/arm-none-eabi/include/c++/10.3.1/bits/stl_algobase.h ****    *  @param  __last   A bidirectional iterator.
 781:/Library/DaisyToolchain/0.2.0/arm/arm-none-eabi/include/c++/10.3.1/bits/stl_algobase.h ****    *  @param  __result A bidirectional iterator.
 782:/Library/DaisyToolchain/0.2.0/arm/arm-none-eabi/include/c++/10.3.1/bits/stl_algobase.h ****    *  @return   result - (last - first)
 783:/Library/DaisyToolchain/0.2.0/arm/arm-none-eabi/include/c++/10.3.1/bits/stl_algobase.h ****    *
 784:/Library/DaisyToolchain/0.2.0/arm/arm-none-eabi/include/c++/10.3.1/bits/stl_algobase.h ****    *  The function has the same effect as copy, but starts at the end of the
 785:/Library/DaisyToolchain/0.2.0/arm/arm-none-eabi/include/c++/10.3.1/bits/stl_algobase.h ****    *  range and works its way to the start, returning the start of the result.
 786:/Library/DaisyToolchain/0.2.0/arm/arm-none-eabi/include/c++/10.3.1/bits/stl_algobase.h ****    *  This inline function will boil down to a call to @c memmove whenever
 787:/Library/DaisyToolchain/0.2.0/arm/arm-none-eabi/include/c++/10.3.1/bits/stl_algobase.h ****    *  possible.  Failing that, if random access iterators are passed, then the
 788:/Library/DaisyToolchain/0.2.0/arm/arm-none-eabi/include/c++/10.3.1/bits/stl_algobase.h ****    *  loop count will be known (and therefore a candidate for compiler
 789:/Library/DaisyToolchain/0.2.0/arm/arm-none-eabi/include/c++/10.3.1/bits/stl_algobase.h ****    *  optimizations such as unrolling).
 790:/Library/DaisyToolchain/0.2.0/arm/arm-none-eabi/include/c++/10.3.1/bits/stl_algobase.h ****    *
 791:/Library/DaisyToolchain/0.2.0/arm/arm-none-eabi/include/c++/10.3.1/bits/stl_algobase.h ****    *  Result may not be in the range (first,last].  Use copy instead.  Note
 792:/Library/DaisyToolchain/0.2.0/arm/arm-none-eabi/include/c++/10.3.1/bits/stl_algobase.h ****    *  that the start of the output range may overlap [first,last).
 793:/Library/DaisyToolchain/0.2.0/arm/arm-none-eabi/include/c++/10.3.1/bits/stl_algobase.h ****   */
 794:/Library/DaisyToolchain/0.2.0/arm/arm-none-eabi/include/c++/10.3.1/bits/stl_algobase.h ****   template<typename _BI1, typename _BI2>
 795:/Library/DaisyToolchain/0.2.0/arm/arm-none-eabi/include/c++/10.3.1/bits/stl_algobase.h ****     _GLIBCXX20_CONSTEXPR
 796:/Library/DaisyToolchain/0.2.0/arm/arm-none-eabi/include/c++/10.3.1/bits/stl_algobase.h ****     inline _BI2
 797:/Library/DaisyToolchain/0.2.0/arm/arm-none-eabi/include/c++/10.3.1/bits/stl_algobase.h ****     copy_backward(_BI1 __first, _BI1 __last, _BI2 __result)
 798:/Library/DaisyToolchain/0.2.0/arm/arm-none-eabi/include/c++/10.3.1/bits/stl_algobase.h ****     {
 799:/Library/DaisyToolchain/0.2.0/arm/arm-none-eabi/include/c++/10.3.1/bits/stl_algobase.h ****       // concept requirements
 800:/Library/DaisyToolchain/0.2.0/arm/arm-none-eabi/include/c++/10.3.1/bits/stl_algobase.h ****       __glibcxx_function_requires(_BidirectionalIteratorConcept<_BI1>)
 801:/Library/DaisyToolchain/0.2.0/arm/arm-none-eabi/include/c++/10.3.1/bits/stl_algobase.h ****       __glibcxx_function_requires(_Mutable_BidirectionalIteratorConcept<_BI2>)
 802:/Library/DaisyToolchain/0.2.0/arm/arm-none-eabi/include/c++/10.3.1/bits/stl_algobase.h ****       __glibcxx_function_requires(_ConvertibleConcept<
 803:/Library/DaisyToolchain/0.2.0/arm/arm-none-eabi/include/c++/10.3.1/bits/stl_algobase.h **** 	    typename iterator_traits<_BI1>::value_type,
 804:/Library/DaisyToolchain/0.2.0/arm/arm-none-eabi/include/c++/10.3.1/bits/stl_algobase.h **** 	    typename iterator_traits<_BI2>::value_type>)
 805:/Library/DaisyToolchain/0.2.0/arm/arm-none-eabi/include/c++/10.3.1/bits/stl_algobase.h ****       __glibcxx_requires_can_decrement_range(__first, __last, __result);
 806:/Library/DaisyToolchain/0.2.0/arm/arm-none-eabi/include/c++/10.3.1/bits/stl_algobase.h **** 
 807:/Library/DaisyToolchain/0.2.0/arm/arm-none-eabi/include/c++/10.3.1/bits/stl_algobase.h ****       return std::__copy_move_backward_a<__is_move_iterator<_BI1>::__value>
 808:/Library/DaisyToolchain/0.2.0/arm/arm-none-eabi/include/c++/10.3.1/bits/stl_algobase.h **** 	     (std::__miter_base(__first), std::__miter_base(__last), __result);
 809:/Library/DaisyToolchain/0.2.0/arm/arm-none-eabi/include/c++/10.3.1/bits/stl_algobase.h ****     }
 810:/Library/DaisyToolchain/0.2.0/arm/arm-none-eabi/include/c++/10.3.1/bits/stl_algobase.h **** 
 811:/Library/DaisyToolchain/0.2.0/arm/arm-none-eabi/include/c++/10.3.1/bits/stl_algobase.h **** #if __cplusplus >= 201103L
 812:/Library/DaisyToolchain/0.2.0/arm/arm-none-eabi/include/c++/10.3.1/bits/stl_algobase.h ****   /**
 813:/Library/DaisyToolchain/0.2.0/arm/arm-none-eabi/include/c++/10.3.1/bits/stl_algobase.h ****    *  @brief Moves the range [first,last) into result.
 814:/Library/DaisyToolchain/0.2.0/arm/arm-none-eabi/include/c++/10.3.1/bits/stl_algobase.h ****    *  @ingroup mutating_algorithms
 815:/Library/DaisyToolchain/0.2.0/arm/arm-none-eabi/include/c++/10.3.1/bits/stl_algobase.h ****    *  @param  __first  A bidirectional iterator.
 816:/Library/DaisyToolchain/0.2.0/arm/arm-none-eabi/include/c++/10.3.1/bits/stl_algobase.h ****    *  @param  __last   A bidirectional iterator.
 817:/Library/DaisyToolchain/0.2.0/arm/arm-none-eabi/include/c++/10.3.1/bits/stl_algobase.h ****    *  @param  __result A bidirectional iterator.
 818:/Library/DaisyToolchain/0.2.0/arm/arm-none-eabi/include/c++/10.3.1/bits/stl_algobase.h ****    *  @return   result - (last - first)
 819:/Library/DaisyToolchain/0.2.0/arm/arm-none-eabi/include/c++/10.3.1/bits/stl_algobase.h ****    *
 820:/Library/DaisyToolchain/0.2.0/arm/arm-none-eabi/include/c++/10.3.1/bits/stl_algobase.h ****    *  The function has the same effect as move, but starts at the end of the
 821:/Library/DaisyToolchain/0.2.0/arm/arm-none-eabi/include/c++/10.3.1/bits/stl_algobase.h ****    *  range and works its way to the start, returning the start of the result.
 822:/Library/DaisyToolchain/0.2.0/arm/arm-none-eabi/include/c++/10.3.1/bits/stl_algobase.h ****    *  This inline function will boil down to a call to @c memmove whenever
 823:/Library/DaisyToolchain/0.2.0/arm/arm-none-eabi/include/c++/10.3.1/bits/stl_algobase.h ****    *  possible.  Failing that, if random access iterators are passed, then the
 824:/Library/DaisyToolchain/0.2.0/arm/arm-none-eabi/include/c++/10.3.1/bits/stl_algobase.h ****    *  loop count will be known (and therefore a candidate for compiler
 825:/Library/DaisyToolchain/0.2.0/arm/arm-none-eabi/include/c++/10.3.1/bits/stl_algobase.h ****    *  optimizations such as unrolling).
 826:/Library/DaisyToolchain/0.2.0/arm/arm-none-eabi/include/c++/10.3.1/bits/stl_algobase.h ****    *
ARM GAS  /var/folders/9w/sxkx3zpj5vdcb536f5jvsqpc0000gn/T//ccNfV2cP.s 			page 45


 827:/Library/DaisyToolchain/0.2.0/arm/arm-none-eabi/include/c++/10.3.1/bits/stl_algobase.h ****    *  Result may not be in the range (first,last].  Use move instead.  Note
 828:/Library/DaisyToolchain/0.2.0/arm/arm-none-eabi/include/c++/10.3.1/bits/stl_algobase.h ****    *  that the start of the output range may overlap [first,last).
 829:/Library/DaisyToolchain/0.2.0/arm/arm-none-eabi/include/c++/10.3.1/bits/stl_algobase.h ****   */
 830:/Library/DaisyToolchain/0.2.0/arm/arm-none-eabi/include/c++/10.3.1/bits/stl_algobase.h ****   template<typename _BI1, typename _BI2>
 831:/Library/DaisyToolchain/0.2.0/arm/arm-none-eabi/include/c++/10.3.1/bits/stl_algobase.h ****     _GLIBCXX20_CONSTEXPR
 832:/Library/DaisyToolchain/0.2.0/arm/arm-none-eabi/include/c++/10.3.1/bits/stl_algobase.h ****     inline _BI2
 833:/Library/DaisyToolchain/0.2.0/arm/arm-none-eabi/include/c++/10.3.1/bits/stl_algobase.h ****     move_backward(_BI1 __first, _BI1 __last, _BI2 __result)
 834:/Library/DaisyToolchain/0.2.0/arm/arm-none-eabi/include/c++/10.3.1/bits/stl_algobase.h ****     {
 835:/Library/DaisyToolchain/0.2.0/arm/arm-none-eabi/include/c++/10.3.1/bits/stl_algobase.h ****       // concept requirements
 836:/Library/DaisyToolchain/0.2.0/arm/arm-none-eabi/include/c++/10.3.1/bits/stl_algobase.h ****       __glibcxx_function_requires(_BidirectionalIteratorConcept<_BI1>)
 837:/Library/DaisyToolchain/0.2.0/arm/arm-none-eabi/include/c++/10.3.1/bits/stl_algobase.h ****       __glibcxx_function_requires(_Mutable_BidirectionalIteratorConcept<_BI2>)
 838:/Library/DaisyToolchain/0.2.0/arm/arm-none-eabi/include/c++/10.3.1/bits/stl_algobase.h ****       __glibcxx_function_requires(_ConvertibleConcept<
 839:/Library/DaisyToolchain/0.2.0/arm/arm-none-eabi/include/c++/10.3.1/bits/stl_algobase.h **** 	    typename iterator_traits<_BI1>::value_type,
 840:/Library/DaisyToolchain/0.2.0/arm/arm-none-eabi/include/c++/10.3.1/bits/stl_algobase.h **** 	    typename iterator_traits<_BI2>::value_type>)
 841:/Library/DaisyToolchain/0.2.0/arm/arm-none-eabi/include/c++/10.3.1/bits/stl_algobase.h ****       __glibcxx_requires_can_decrement_range(__first, __last, __result);
 842:/Library/DaisyToolchain/0.2.0/arm/arm-none-eabi/include/c++/10.3.1/bits/stl_algobase.h **** 
 843:/Library/DaisyToolchain/0.2.0/arm/arm-none-eabi/include/c++/10.3.1/bits/stl_algobase.h ****       return std::__copy_move_backward_a<true>(std::__miter_base(__first),
 844:/Library/DaisyToolchain/0.2.0/arm/arm-none-eabi/include/c++/10.3.1/bits/stl_algobase.h **** 					       std::__miter_base(__last),
 845:/Library/DaisyToolchain/0.2.0/arm/arm-none-eabi/include/c++/10.3.1/bits/stl_algobase.h **** 					       __result);
 846:/Library/DaisyToolchain/0.2.0/arm/arm-none-eabi/include/c++/10.3.1/bits/stl_algobase.h ****     }
 847:/Library/DaisyToolchain/0.2.0/arm/arm-none-eabi/include/c++/10.3.1/bits/stl_algobase.h **** 
 848:/Library/DaisyToolchain/0.2.0/arm/arm-none-eabi/include/c++/10.3.1/bits/stl_algobase.h **** #define _GLIBCXX_MOVE_BACKWARD3(_Tp, _Up, _Vp) std::move_backward(_Tp, _Up, _Vp)
 849:/Library/DaisyToolchain/0.2.0/arm/arm-none-eabi/include/c++/10.3.1/bits/stl_algobase.h **** #else
 850:/Library/DaisyToolchain/0.2.0/arm/arm-none-eabi/include/c++/10.3.1/bits/stl_algobase.h **** #define _GLIBCXX_MOVE_BACKWARD3(_Tp, _Up, _Vp) std::copy_backward(_Tp, _Up, _Vp)
 851:/Library/DaisyToolchain/0.2.0/arm/arm-none-eabi/include/c++/10.3.1/bits/stl_algobase.h **** #endif
 852:/Library/DaisyToolchain/0.2.0/arm/arm-none-eabi/include/c++/10.3.1/bits/stl_algobase.h **** 
 853:/Library/DaisyToolchain/0.2.0/arm/arm-none-eabi/include/c++/10.3.1/bits/stl_algobase.h ****   template<typename _ForwardIterator, typename _Tp>
 854:/Library/DaisyToolchain/0.2.0/arm/arm-none-eabi/include/c++/10.3.1/bits/stl_algobase.h ****     _GLIBCXX20_CONSTEXPR
 855:/Library/DaisyToolchain/0.2.0/arm/arm-none-eabi/include/c++/10.3.1/bits/stl_algobase.h ****     inline typename
 856:/Library/DaisyToolchain/0.2.0/arm/arm-none-eabi/include/c++/10.3.1/bits/stl_algobase.h ****     __gnu_cxx::__enable_if<!__is_scalar<_Tp>::__value, void>::__type
 857:/Library/DaisyToolchain/0.2.0/arm/arm-none-eabi/include/c++/10.3.1/bits/stl_algobase.h ****     __fill_a1(_ForwardIterator __first, _ForwardIterator __last,
 858:/Library/DaisyToolchain/0.2.0/arm/arm-none-eabi/include/c++/10.3.1/bits/stl_algobase.h **** 	      const _Tp& __value)
 859:/Library/DaisyToolchain/0.2.0/arm/arm-none-eabi/include/c++/10.3.1/bits/stl_algobase.h ****     {
 860:/Library/DaisyToolchain/0.2.0/arm/arm-none-eabi/include/c++/10.3.1/bits/stl_algobase.h ****       for (; __first != __last; ++__first)
 861:/Library/DaisyToolchain/0.2.0/arm/arm-none-eabi/include/c++/10.3.1/bits/stl_algobase.h **** 	*__first = __value;
 862:/Library/DaisyToolchain/0.2.0/arm/arm-none-eabi/include/c++/10.3.1/bits/stl_algobase.h ****     }
 863:/Library/DaisyToolchain/0.2.0/arm/arm-none-eabi/include/c++/10.3.1/bits/stl_algobase.h **** 
 864:/Library/DaisyToolchain/0.2.0/arm/arm-none-eabi/include/c++/10.3.1/bits/stl_algobase.h ****   template<typename _ForwardIterator, typename _Tp>
 865:/Library/DaisyToolchain/0.2.0/arm/arm-none-eabi/include/c++/10.3.1/bits/stl_algobase.h ****     _GLIBCXX20_CONSTEXPR
 866:/Library/DaisyToolchain/0.2.0/arm/arm-none-eabi/include/c++/10.3.1/bits/stl_algobase.h ****     inline typename
 867:/Library/DaisyToolchain/0.2.0/arm/arm-none-eabi/include/c++/10.3.1/bits/stl_algobase.h ****     __gnu_cxx::__enable_if<__is_scalar<_Tp>::__value, void>::__type
 868:/Library/DaisyToolchain/0.2.0/arm/arm-none-eabi/include/c++/10.3.1/bits/stl_algobase.h ****     __fill_a1(_ForwardIterator __first, _ForwardIterator __last,
 869:/Library/DaisyToolchain/0.2.0/arm/arm-none-eabi/include/c++/10.3.1/bits/stl_algobase.h **** 	      const _Tp& __value)
 870:/Library/DaisyToolchain/0.2.0/arm/arm-none-eabi/include/c++/10.3.1/bits/stl_algobase.h ****     {
 871:/Library/DaisyToolchain/0.2.0/arm/arm-none-eabi/include/c++/10.3.1/bits/stl_algobase.h ****       const _Tp __tmp = __value;
 872:/Library/DaisyToolchain/0.2.0/arm/arm-none-eabi/include/c++/10.3.1/bits/stl_algobase.h ****       for (; __first != __last; ++__first)
 873:/Library/DaisyToolchain/0.2.0/arm/arm-none-eabi/include/c++/10.3.1/bits/stl_algobase.h **** 	*__first = __tmp;
 874:/Library/DaisyToolchain/0.2.0/arm/arm-none-eabi/include/c++/10.3.1/bits/stl_algobase.h ****     }
 875:/Library/DaisyToolchain/0.2.0/arm/arm-none-eabi/include/c++/10.3.1/bits/stl_algobase.h **** 
 876:/Library/DaisyToolchain/0.2.0/arm/arm-none-eabi/include/c++/10.3.1/bits/stl_algobase.h ****   // Specialization: for char types we can use memset.
 877:/Library/DaisyToolchain/0.2.0/arm/arm-none-eabi/include/c++/10.3.1/bits/stl_algobase.h ****   template<typename _Tp>
 878:/Library/DaisyToolchain/0.2.0/arm/arm-none-eabi/include/c++/10.3.1/bits/stl_algobase.h ****     _GLIBCXX20_CONSTEXPR
 879:/Library/DaisyToolchain/0.2.0/arm/arm-none-eabi/include/c++/10.3.1/bits/stl_algobase.h ****     inline typename
 880:/Library/DaisyToolchain/0.2.0/arm/arm-none-eabi/include/c++/10.3.1/bits/stl_algobase.h ****     __gnu_cxx::__enable_if<__is_byte<_Tp>::__value, void>::__type
 881:/Library/DaisyToolchain/0.2.0/arm/arm-none-eabi/include/c++/10.3.1/bits/stl_algobase.h ****     __fill_a1(_Tp* __first, _Tp* __last, const _Tp& __c)
 882:/Library/DaisyToolchain/0.2.0/arm/arm-none-eabi/include/c++/10.3.1/bits/stl_algobase.h ****     {
 883:/Library/DaisyToolchain/0.2.0/arm/arm-none-eabi/include/c++/10.3.1/bits/stl_algobase.h ****       const _Tp __tmp = __c;
ARM GAS  /var/folders/9w/sxkx3zpj5vdcb536f5jvsqpc0000gn/T//ccNfV2cP.s 			page 46


 884:/Library/DaisyToolchain/0.2.0/arm/arm-none-eabi/include/c++/10.3.1/bits/stl_algobase.h **** #if __cpp_lib_is_constant_evaluated
 885:/Library/DaisyToolchain/0.2.0/arm/arm-none-eabi/include/c++/10.3.1/bits/stl_algobase.h ****       if (std::is_constant_evaluated())
 886:/Library/DaisyToolchain/0.2.0/arm/arm-none-eabi/include/c++/10.3.1/bits/stl_algobase.h **** 	{
 887:/Library/DaisyToolchain/0.2.0/arm/arm-none-eabi/include/c++/10.3.1/bits/stl_algobase.h **** 	  for (; __first != __last; ++__first)
 888:/Library/DaisyToolchain/0.2.0/arm/arm-none-eabi/include/c++/10.3.1/bits/stl_algobase.h **** 	    *__first = __tmp;
 889:/Library/DaisyToolchain/0.2.0/arm/arm-none-eabi/include/c++/10.3.1/bits/stl_algobase.h **** 	  return;
 890:/Library/DaisyToolchain/0.2.0/arm/arm-none-eabi/include/c++/10.3.1/bits/stl_algobase.h **** 	}
 891:/Library/DaisyToolchain/0.2.0/arm/arm-none-eabi/include/c++/10.3.1/bits/stl_algobase.h **** #endif
 892:/Library/DaisyToolchain/0.2.0/arm/arm-none-eabi/include/c++/10.3.1/bits/stl_algobase.h ****       if (const size_t __len = __last - __first)
 893:/Library/DaisyToolchain/0.2.0/arm/arm-none-eabi/include/c++/10.3.1/bits/stl_algobase.h **** 	__builtin_memset(__first, static_cast<unsigned char>(__tmp), __len);
 894:/Library/DaisyToolchain/0.2.0/arm/arm-none-eabi/include/c++/10.3.1/bits/stl_algobase.h ****     }
 895:/Library/DaisyToolchain/0.2.0/arm/arm-none-eabi/include/c++/10.3.1/bits/stl_algobase.h **** 
 896:/Library/DaisyToolchain/0.2.0/arm/arm-none-eabi/include/c++/10.3.1/bits/stl_algobase.h ****   template<typename _Ite, typename _Cont, typename _Tp>
 897:/Library/DaisyToolchain/0.2.0/arm/arm-none-eabi/include/c++/10.3.1/bits/stl_algobase.h ****     _GLIBCXX20_CONSTEXPR
 898:/Library/DaisyToolchain/0.2.0/arm/arm-none-eabi/include/c++/10.3.1/bits/stl_algobase.h ****     inline void
 899:/Library/DaisyToolchain/0.2.0/arm/arm-none-eabi/include/c++/10.3.1/bits/stl_algobase.h ****     __fill_a1(::__gnu_cxx::__normal_iterator<_Ite, _Cont> __first,
 900:/Library/DaisyToolchain/0.2.0/arm/arm-none-eabi/include/c++/10.3.1/bits/stl_algobase.h **** 	      ::__gnu_cxx::__normal_iterator<_Ite, _Cont> __last,
 901:/Library/DaisyToolchain/0.2.0/arm/arm-none-eabi/include/c++/10.3.1/bits/stl_algobase.h **** 	      const _Tp& __value)
 902:/Library/DaisyToolchain/0.2.0/arm/arm-none-eabi/include/c++/10.3.1/bits/stl_algobase.h ****     { std::__fill_a1(__first.base(), __last.base(), __value); }
 903:/Library/DaisyToolchain/0.2.0/arm/arm-none-eabi/include/c++/10.3.1/bits/stl_algobase.h **** 
 904:/Library/DaisyToolchain/0.2.0/arm/arm-none-eabi/include/c++/10.3.1/bits/stl_algobase.h ****   template<typename _Tp, typename _VTp>
 905:/Library/DaisyToolchain/0.2.0/arm/arm-none-eabi/include/c++/10.3.1/bits/stl_algobase.h ****     void
 906:/Library/DaisyToolchain/0.2.0/arm/arm-none-eabi/include/c++/10.3.1/bits/stl_algobase.h ****     __fill_a1(const _GLIBCXX_STD_C::_Deque_iterator<_Tp, _Tp&, _Tp*>&,
 907:/Library/DaisyToolchain/0.2.0/arm/arm-none-eabi/include/c++/10.3.1/bits/stl_algobase.h **** 	      const _GLIBCXX_STD_C::_Deque_iterator<_Tp, _Tp&, _Tp*>&,
 908:/Library/DaisyToolchain/0.2.0/arm/arm-none-eabi/include/c++/10.3.1/bits/stl_algobase.h **** 	      const _VTp&);
 909:/Library/DaisyToolchain/0.2.0/arm/arm-none-eabi/include/c++/10.3.1/bits/stl_algobase.h **** 
 910:/Library/DaisyToolchain/0.2.0/arm/arm-none-eabi/include/c++/10.3.1/bits/stl_algobase.h ****   template<typename _FIte, typename _Tp>
 911:/Library/DaisyToolchain/0.2.0/arm/arm-none-eabi/include/c++/10.3.1/bits/stl_algobase.h ****     _GLIBCXX20_CONSTEXPR
 912:/Library/DaisyToolchain/0.2.0/arm/arm-none-eabi/include/c++/10.3.1/bits/stl_algobase.h ****     inline void
 913:/Library/DaisyToolchain/0.2.0/arm/arm-none-eabi/include/c++/10.3.1/bits/stl_algobase.h ****     __fill_a(_FIte __first, _FIte __last, const _Tp& __value)
 914:/Library/DaisyToolchain/0.2.0/arm/arm-none-eabi/include/c++/10.3.1/bits/stl_algobase.h ****     { std::__fill_a1(__first, __last, __value); }
 915:/Library/DaisyToolchain/0.2.0/arm/arm-none-eabi/include/c++/10.3.1/bits/stl_algobase.h **** 
 916:/Library/DaisyToolchain/0.2.0/arm/arm-none-eabi/include/c++/10.3.1/bits/stl_algobase.h ****   template<typename _Ite, typename _Seq, typename _Cat, typename _Tp>
 917:/Library/DaisyToolchain/0.2.0/arm/arm-none-eabi/include/c++/10.3.1/bits/stl_algobase.h ****     void
 918:/Library/DaisyToolchain/0.2.0/arm/arm-none-eabi/include/c++/10.3.1/bits/stl_algobase.h ****     __fill_a(const ::__gnu_debug::_Safe_iterator<_Ite, _Seq, _Cat>&,
 919:/Library/DaisyToolchain/0.2.0/arm/arm-none-eabi/include/c++/10.3.1/bits/stl_algobase.h **** 	     const ::__gnu_debug::_Safe_iterator<_Ite, _Seq, _Cat>&,
 920:/Library/DaisyToolchain/0.2.0/arm/arm-none-eabi/include/c++/10.3.1/bits/stl_algobase.h **** 	     const _Tp&);
 921:/Library/DaisyToolchain/0.2.0/arm/arm-none-eabi/include/c++/10.3.1/bits/stl_algobase.h **** 
 922:/Library/DaisyToolchain/0.2.0/arm/arm-none-eabi/include/c++/10.3.1/bits/stl_algobase.h ****   /**
 923:/Library/DaisyToolchain/0.2.0/arm/arm-none-eabi/include/c++/10.3.1/bits/stl_algobase.h ****    *  @brief Fills the range [first,last) with copies of value.
 924:/Library/DaisyToolchain/0.2.0/arm/arm-none-eabi/include/c++/10.3.1/bits/stl_algobase.h ****    *  @ingroup mutating_algorithms
 925:/Library/DaisyToolchain/0.2.0/arm/arm-none-eabi/include/c++/10.3.1/bits/stl_algobase.h ****    *  @param  __first  A forward iterator.
 926:/Library/DaisyToolchain/0.2.0/arm/arm-none-eabi/include/c++/10.3.1/bits/stl_algobase.h ****    *  @param  __last   A forward iterator.
 927:/Library/DaisyToolchain/0.2.0/arm/arm-none-eabi/include/c++/10.3.1/bits/stl_algobase.h ****    *  @param  __value  A reference-to-const of arbitrary type.
 928:/Library/DaisyToolchain/0.2.0/arm/arm-none-eabi/include/c++/10.3.1/bits/stl_algobase.h ****    *  @return   Nothing.
 929:/Library/DaisyToolchain/0.2.0/arm/arm-none-eabi/include/c++/10.3.1/bits/stl_algobase.h ****    *
 930:/Library/DaisyToolchain/0.2.0/arm/arm-none-eabi/include/c++/10.3.1/bits/stl_algobase.h ****    *  This function fills a range with copies of the same value.  For char
 931:/Library/DaisyToolchain/0.2.0/arm/arm-none-eabi/include/c++/10.3.1/bits/stl_algobase.h ****    *  types filling contiguous areas of memory, this becomes an inline call
 932:/Library/DaisyToolchain/0.2.0/arm/arm-none-eabi/include/c++/10.3.1/bits/stl_algobase.h ****    *  to @c memset or @c wmemset.
 933:/Library/DaisyToolchain/0.2.0/arm/arm-none-eabi/include/c++/10.3.1/bits/stl_algobase.h ****   */
 934:/Library/DaisyToolchain/0.2.0/arm/arm-none-eabi/include/c++/10.3.1/bits/stl_algobase.h ****   template<typename _ForwardIterator, typename _Tp>
 935:/Library/DaisyToolchain/0.2.0/arm/arm-none-eabi/include/c++/10.3.1/bits/stl_algobase.h ****     _GLIBCXX20_CONSTEXPR
 936:/Library/DaisyToolchain/0.2.0/arm/arm-none-eabi/include/c++/10.3.1/bits/stl_algobase.h ****     inline void
 937:/Library/DaisyToolchain/0.2.0/arm/arm-none-eabi/include/c++/10.3.1/bits/stl_algobase.h ****     fill(_ForwardIterator __first, _ForwardIterator __last, const _Tp& __value)
 521              		.loc 12 937 5 view .LVU148
 522              	.LBB490:
 523              	.LBI490:
ARM GAS  /var/folders/9w/sxkx3zpj5vdcb536f5jvsqpc0000gn/T//ccNfV2cP.s 			page 47


 913:/Library/DaisyToolchain/0.2.0/arm/arm-none-eabi/include/c++/10.3.1/bits/stl_algobase.h ****     { std::__fill_a1(__first, __last, __value); }
 524              		.loc 12 913 5 view .LVU149
 525              	.LBB491:
 526              	.LBI491:
 868:/Library/DaisyToolchain/0.2.0/arm/arm-none-eabi/include/c++/10.3.1/bits/stl_algobase.h **** 	      const _Tp& __value)
 527              		.loc 12 868 5 view .LVU150
 528              	.LBB492:
 872:/Library/DaisyToolchain/0.2.0/arm/arm-none-eabi/include/c++/10.3.1/bits/stl_algobase.h **** 	*__first = __tmp;
 529              		.loc 12 872 22 view .LVU151
 530              	.LBE492:
 531              	.LBE491:
 532              	.LBE490:
 533              	.LBE489:
 534              	.LBE488:
 535              	.LBE487:
 367:chnl.cpp      ****                         ResetBuffer();
 536              		.loc 11 367 31 is_stmt 0 view .LVU152
 537 0138 104B     		ldr	r3, .L39
 538              	.LVL29:
 539              	.L22:
 540              	.LBB498:
 541              	.LBB497:
 542              	.LBB496:
 543              	.LBB495:
 544              	.LBB494:
 545              	.LBB493:
 873:/Library/DaisyToolchain/0.2.0/arm/arm-none-eabi/include/c++/10.3.1/bits/stl_algobase.h ****     }
 546              		.loc 12 873 11 view .LVU153
 547 013a 0022     		movs	r2, #0
 548 013c 43F8042B 		str	r2, [r3], #4	@ float
 549              	.LVL30:
 872:/Library/DaisyToolchain/0.2.0/arm/arm-none-eabi/include/c++/10.3.1/bits/stl_algobase.h **** 	*__first = __tmp;
 550              		.loc 12 872 7 is_stmt 1 view .LVU154
 872:/Library/DaisyToolchain/0.2.0/arm/arm-none-eabi/include/c++/10.3.1/bits/stl_algobase.h **** 	*__first = __tmp;
 551              		.loc 12 872 22 view .LVU155
 552 0140 8B42     		cmp	r3, r1
 553 0142 FAD1     		bne	.L22
 554              	.LVL31:
 555              	.L20:
 872:/Library/DaisyToolchain/0.2.0/arm/arm-none-eabi/include/c++/10.3.1/bits/stl_algobase.h **** 	*__first = __tmp;
 556              		.loc 12 872 22 is_stmt 0 view .LVU156
 557              	.LBE493:
 558              	.LBE494:
 559              	.LBE495:
 560              	.LBE496:
 561              	.LBE497:
 562              	.LBE498:
 378:chnl.cpp      ****         float in_r = IN_R[i] * in_level;
 563              		.loc 11 378 9 is_stmt 1 view .LVU157
 378:chnl.cpp      ****         float in_r = IN_R[i] * in_level;
 564              		.loc 11 378 28 is_stmt 0 view .LVU158
 565 0144 DBF80030 		ldr	r3, [fp]
 378:chnl.cpp      ****         float in_r = IN_R[i] * in_level;
 566              		.loc 11 378 15 view .LVU159
 567 0148 F6EE006A 		vmov.f32	s13, #5.0e-1
 388:chnl.cpp      ****         OUT_R[i] = buffer[currentPosition][1] * loop_level + in_r;
 568              		.loc 11 388 45 view .LVU160
ARM GAS  /var/folders/9w/sxkx3zpj5vdcb536f5jvsqpc0000gn/T//ccNfV2cP.s 			page 48


 569 014c 2A68     		ldr	r2, [r5]
 570 014e A100     		lsls	r1, r4, #2
 378:chnl.cpp      ****         float in_r = IN_R[i] * in_level;
 571              		.loc 11 378 28 view .LVU161
 572 0150 03EB8403 		add	r3, r3, r4, lsl #2
 573 0154 D000     		lsls	r0, r2, #3
 378:chnl.cpp      ****         float in_r = IN_R[i] * in_level;
 574              		.loc 11 378 15 view .LVU162
 575 0156 93ED007A 		vldr.32	s14, [r3]
 379:chnl.cpp      **** 
 576              		.loc 11 379 28 view .LVU163
 577 015a DBF80430 		ldr	r3, [fp, #4]
 378:chnl.cpp      ****         float in_r = IN_R[i] * in_level;
 578              		.loc 11 378 15 view .LVU164
 579 015e 27EE267A 		vmul.f32	s14, s14, s13
 580              	.LVL32:
 379:chnl.cpp      **** 
 581              		.loc 11 379 9 is_stmt 1 view .LVU165
 379:chnl.cpp      **** 
 582              		.loc 11 379 28 is_stmt 0 view .LVU166
 583 0162 03EB8403 		add	r3, r3, r4, lsl #2
 379:chnl.cpp      **** 
 584              		.loc 11 379 15 view .LVU167
 585 0166 D3ED007A 		vldr.32	s15, [r3]
 586 016a 67EEA67A 		vmul.f32	s15, s15, s13
 587              	.LVL33:
 382:chnl.cpp      ****             buffer[currentPosition][0] = in_l;
 588              		.loc 11 382 9 is_stmt 1 view .LVU168
 589 016e 77E7     		b	.L23
 590              	.LVL34:
 591              	.L17:
 360:chnl.cpp      ****                         state = LooperState::Playing;
 592              		.loc 11 360 21 view .LVU169
 361:chnl.cpp      ****                         break;
 593              		.loc 11 361 25 view .LVU170
 361:chnl.cpp      ****                         break;
 594              		.loc 11 361 31 is_stmt 0 view .LVU171
 595 0170 0223     		movs	r3, #2
 596 0172 88F80030 		strb	r3, [r8]
 362:chnl.cpp      ****                     case LooperState::PendingRecord:
 597              		.loc 11 362 25 is_stmt 1 view .LVU172
 598 0176 E5E7     		b	.L20
 599              	.LVL35:
 600              	.L33:
 601              		.cfi_def_cfa_offset 0
 602              		.cfi_restore 3
 603              		.cfi_restore 4
 604              		.cfi_restore 5
 605              		.cfi_restore 6
 606              		.cfi_restore 7
 607              		.cfi_restore 8
 608              		.cfi_restore 9
 609              		.cfi_restore 10
 610              		.cfi_restore 11
 611              		.cfi_restore 14
 362:chnl.cpp      ****                     case LooperState::PendingRecord:
 612              		.loc 11 362 25 is_stmt 0 view .LVU173
ARM GAS  /var/folders/9w/sxkx3zpj5vdcb536f5jvsqpc0000gn/T//ccNfV2cP.s 			page 49


 613 0178 7047     		bx	lr
 614              	.L40:
 615 017a 00BF     		.align	2
 616              	.L39:
 617 017c 00000000 		.word	buffer
 618 0180 00000000 		.word	.LANCHOR5
 619 0184 00000000 		.word	.LANCHOR2
 620 0188 00000000 		.word	.LANCHOR3
 621 018c 00000000 		.word	.LANCHOR1
 622 0190 00000000 		.word	.LC13
 623 0194 04905F01 		.word	buffer+23040004
 624 0198 00000000 		.word	.LANCHOR4
 625 019c 00000000 		.word	.LANCHOR6
 626              	.LBE502:
 627              	.LBE504:
 628              		.cfi_endproc
 629              	.LFE4702:
 631              		.section	.text._ZNSt7__cxx119to_stringEi,"axG",%progbits,_ZNSt7__cxx119to_stringEi,comdat
 632              		.align	1
 633              		.p2align 2,,3
 634              		.weak	_ZNSt7__cxx119to_stringEi
 635              		.syntax unified
 636              		.thumb
 637              		.thumb_func
 639              	_ZNSt7__cxx119to_stringEi:
 640              	.LVL36:
 641              	.LFB3110:
 642              		.file 13 "/Library/DaisyToolchain/0.2.0/arm/arm-none-eabi/include/c++/10.3.1/bits/basic_string.h"
   1:/Library/DaisyToolchain/0.2.0/arm/arm-none-eabi/include/c++/10.3.1/bits/basic_string.h **** // Components for manipulating sequences of characters -*- C++ -*-
   2:/Library/DaisyToolchain/0.2.0/arm/arm-none-eabi/include/c++/10.3.1/bits/basic_string.h **** 
   3:/Library/DaisyToolchain/0.2.0/arm/arm-none-eabi/include/c++/10.3.1/bits/basic_string.h **** // Copyright (C) 1997-2020 Free Software Foundation, Inc.
   4:/Library/DaisyToolchain/0.2.0/arm/arm-none-eabi/include/c++/10.3.1/bits/basic_string.h **** //
   5:/Library/DaisyToolchain/0.2.0/arm/arm-none-eabi/include/c++/10.3.1/bits/basic_string.h **** // This file is part of the GNU ISO C++ Library.  This library is free
   6:/Library/DaisyToolchain/0.2.0/arm/arm-none-eabi/include/c++/10.3.1/bits/basic_string.h **** // software; you can redistribute it and/or modify it under the
   7:/Library/DaisyToolchain/0.2.0/arm/arm-none-eabi/include/c++/10.3.1/bits/basic_string.h **** // terms of the GNU General Public License as published by the
   8:/Library/DaisyToolchain/0.2.0/arm/arm-none-eabi/include/c++/10.3.1/bits/basic_string.h **** // Free Software Foundation; either version 3, or (at your option)
   9:/Library/DaisyToolchain/0.2.0/arm/arm-none-eabi/include/c++/10.3.1/bits/basic_string.h **** // any later version.
  10:/Library/DaisyToolchain/0.2.0/arm/arm-none-eabi/include/c++/10.3.1/bits/basic_string.h **** 
  11:/Library/DaisyToolchain/0.2.0/arm/arm-none-eabi/include/c++/10.3.1/bits/basic_string.h **** // This library is distributed in the hope that it will be useful,
  12:/Library/DaisyToolchain/0.2.0/arm/arm-none-eabi/include/c++/10.3.1/bits/basic_string.h **** // but WITHOUT ANY WARRANTY; without even the implied warranty of
  13:/Library/DaisyToolchain/0.2.0/arm/arm-none-eabi/include/c++/10.3.1/bits/basic_string.h **** // MERCHANTABILITY or FITNESS FOR A PARTICULAR PURPOSE.  See the
  14:/Library/DaisyToolchain/0.2.0/arm/arm-none-eabi/include/c++/10.3.1/bits/basic_string.h **** // GNU General Public License for more details.
  15:/Library/DaisyToolchain/0.2.0/arm/arm-none-eabi/include/c++/10.3.1/bits/basic_string.h **** 
  16:/Library/DaisyToolchain/0.2.0/arm/arm-none-eabi/include/c++/10.3.1/bits/basic_string.h **** // Under Section 7 of GPL version 3, you are granted additional
  17:/Library/DaisyToolchain/0.2.0/arm/arm-none-eabi/include/c++/10.3.1/bits/basic_string.h **** // permissions described in the GCC Runtime Library Exception, version
  18:/Library/DaisyToolchain/0.2.0/arm/arm-none-eabi/include/c++/10.3.1/bits/basic_string.h **** // 3.1, as published by the Free Software Foundation.
  19:/Library/DaisyToolchain/0.2.0/arm/arm-none-eabi/include/c++/10.3.1/bits/basic_string.h **** 
  20:/Library/DaisyToolchain/0.2.0/arm/arm-none-eabi/include/c++/10.3.1/bits/basic_string.h **** // You should have received a copy of the GNU General Public License and
  21:/Library/DaisyToolchain/0.2.0/arm/arm-none-eabi/include/c++/10.3.1/bits/basic_string.h **** // a copy of the GCC Runtime Library Exception along with this program;
  22:/Library/DaisyToolchain/0.2.0/arm/arm-none-eabi/include/c++/10.3.1/bits/basic_string.h **** // see the files COPYING3 and COPYING.RUNTIME respectively.  If not, see
  23:/Library/DaisyToolchain/0.2.0/arm/arm-none-eabi/include/c++/10.3.1/bits/basic_string.h **** // <http://www.gnu.org/licenses/>.
  24:/Library/DaisyToolchain/0.2.0/arm/arm-none-eabi/include/c++/10.3.1/bits/basic_string.h **** 
  25:/Library/DaisyToolchain/0.2.0/arm/arm-none-eabi/include/c++/10.3.1/bits/basic_string.h **** /** @file bits/basic_string.h
  26:/Library/DaisyToolchain/0.2.0/arm/arm-none-eabi/include/c++/10.3.1/bits/basic_string.h ****  *  This is an internal header file, included by other library headers.
  27:/Library/DaisyToolchain/0.2.0/arm/arm-none-eabi/include/c++/10.3.1/bits/basic_string.h ****  *  Do not attempt to use it directly. @headername{string}
  28:/Library/DaisyToolchain/0.2.0/arm/arm-none-eabi/include/c++/10.3.1/bits/basic_string.h ****  */
  29:/Library/DaisyToolchain/0.2.0/arm/arm-none-eabi/include/c++/10.3.1/bits/basic_string.h **** 
ARM GAS  /var/folders/9w/sxkx3zpj5vdcb536f5jvsqpc0000gn/T//ccNfV2cP.s 			page 50


  30:/Library/DaisyToolchain/0.2.0/arm/arm-none-eabi/include/c++/10.3.1/bits/basic_string.h **** //
  31:/Library/DaisyToolchain/0.2.0/arm/arm-none-eabi/include/c++/10.3.1/bits/basic_string.h **** // ISO C++ 14882: 21 Strings library
  32:/Library/DaisyToolchain/0.2.0/arm/arm-none-eabi/include/c++/10.3.1/bits/basic_string.h **** //
  33:/Library/DaisyToolchain/0.2.0/arm/arm-none-eabi/include/c++/10.3.1/bits/basic_string.h **** 
  34:/Library/DaisyToolchain/0.2.0/arm/arm-none-eabi/include/c++/10.3.1/bits/basic_string.h **** #ifndef _BASIC_STRING_H
  35:/Library/DaisyToolchain/0.2.0/arm/arm-none-eabi/include/c++/10.3.1/bits/basic_string.h **** #define _BASIC_STRING_H 1
  36:/Library/DaisyToolchain/0.2.0/arm/arm-none-eabi/include/c++/10.3.1/bits/basic_string.h **** 
  37:/Library/DaisyToolchain/0.2.0/arm/arm-none-eabi/include/c++/10.3.1/bits/basic_string.h **** #pragma GCC system_header
  38:/Library/DaisyToolchain/0.2.0/arm/arm-none-eabi/include/c++/10.3.1/bits/basic_string.h **** 
  39:/Library/DaisyToolchain/0.2.0/arm/arm-none-eabi/include/c++/10.3.1/bits/basic_string.h **** #include <ext/atomicity.h>
  40:/Library/DaisyToolchain/0.2.0/arm/arm-none-eabi/include/c++/10.3.1/bits/basic_string.h **** #include <ext/alloc_traits.h>
  41:/Library/DaisyToolchain/0.2.0/arm/arm-none-eabi/include/c++/10.3.1/bits/basic_string.h **** #include <debug/debug.h>
  42:/Library/DaisyToolchain/0.2.0/arm/arm-none-eabi/include/c++/10.3.1/bits/basic_string.h **** 
  43:/Library/DaisyToolchain/0.2.0/arm/arm-none-eabi/include/c++/10.3.1/bits/basic_string.h **** #if __cplusplus >= 201103L
  44:/Library/DaisyToolchain/0.2.0/arm/arm-none-eabi/include/c++/10.3.1/bits/basic_string.h **** #include <initializer_list>
  45:/Library/DaisyToolchain/0.2.0/arm/arm-none-eabi/include/c++/10.3.1/bits/basic_string.h **** #endif
  46:/Library/DaisyToolchain/0.2.0/arm/arm-none-eabi/include/c++/10.3.1/bits/basic_string.h **** 
  47:/Library/DaisyToolchain/0.2.0/arm/arm-none-eabi/include/c++/10.3.1/bits/basic_string.h **** #if __cplusplus >= 201703L
  48:/Library/DaisyToolchain/0.2.0/arm/arm-none-eabi/include/c++/10.3.1/bits/basic_string.h **** # include <string_view>
  49:/Library/DaisyToolchain/0.2.0/arm/arm-none-eabi/include/c++/10.3.1/bits/basic_string.h **** #endif
  50:/Library/DaisyToolchain/0.2.0/arm/arm-none-eabi/include/c++/10.3.1/bits/basic_string.h **** 
  51:/Library/DaisyToolchain/0.2.0/arm/arm-none-eabi/include/c++/10.3.1/bits/basic_string.h **** namespace std _GLIBCXX_VISIBILITY(default)
  52:/Library/DaisyToolchain/0.2.0/arm/arm-none-eabi/include/c++/10.3.1/bits/basic_string.h **** {
  53:/Library/DaisyToolchain/0.2.0/arm/arm-none-eabi/include/c++/10.3.1/bits/basic_string.h **** _GLIBCXX_BEGIN_NAMESPACE_VERSION
  54:/Library/DaisyToolchain/0.2.0/arm/arm-none-eabi/include/c++/10.3.1/bits/basic_string.h **** 
  55:/Library/DaisyToolchain/0.2.0/arm/arm-none-eabi/include/c++/10.3.1/bits/basic_string.h **** #ifdef __cpp_lib_is_constant_evaluated
  56:/Library/DaisyToolchain/0.2.0/arm/arm-none-eabi/include/c++/10.3.1/bits/basic_string.h **** // Support P1032R1 in C++20 (but not P0980R1 yet).
  57:/Library/DaisyToolchain/0.2.0/arm/arm-none-eabi/include/c++/10.3.1/bits/basic_string.h **** # define __cpp_lib_constexpr_string 201811L
  58:/Library/DaisyToolchain/0.2.0/arm/arm-none-eabi/include/c++/10.3.1/bits/basic_string.h **** #elif __cplusplus >= 201703L
  59:/Library/DaisyToolchain/0.2.0/arm/arm-none-eabi/include/c++/10.3.1/bits/basic_string.h **** // Support P0426R1 changes to char_traits in C++17.
  60:/Library/DaisyToolchain/0.2.0/arm/arm-none-eabi/include/c++/10.3.1/bits/basic_string.h **** # define __cpp_lib_constexpr_string 201611L
  61:/Library/DaisyToolchain/0.2.0/arm/arm-none-eabi/include/c++/10.3.1/bits/basic_string.h **** #elif __cplusplus > 201703L
  62:/Library/DaisyToolchain/0.2.0/arm/arm-none-eabi/include/c++/10.3.1/bits/basic_string.h **** #endif
  63:/Library/DaisyToolchain/0.2.0/arm/arm-none-eabi/include/c++/10.3.1/bits/basic_string.h **** 
  64:/Library/DaisyToolchain/0.2.0/arm/arm-none-eabi/include/c++/10.3.1/bits/basic_string.h **** #if _GLIBCXX_USE_CXX11_ABI
  65:/Library/DaisyToolchain/0.2.0/arm/arm-none-eabi/include/c++/10.3.1/bits/basic_string.h **** _GLIBCXX_BEGIN_NAMESPACE_CXX11
  66:/Library/DaisyToolchain/0.2.0/arm/arm-none-eabi/include/c++/10.3.1/bits/basic_string.h ****   /**
  67:/Library/DaisyToolchain/0.2.0/arm/arm-none-eabi/include/c++/10.3.1/bits/basic_string.h ****    *  @class basic_string basic_string.h <string>
  68:/Library/DaisyToolchain/0.2.0/arm/arm-none-eabi/include/c++/10.3.1/bits/basic_string.h ****    *  @brief  Managing sequences of characters and character-like objects.
  69:/Library/DaisyToolchain/0.2.0/arm/arm-none-eabi/include/c++/10.3.1/bits/basic_string.h ****    *
  70:/Library/DaisyToolchain/0.2.0/arm/arm-none-eabi/include/c++/10.3.1/bits/basic_string.h ****    *  @ingroup strings
  71:/Library/DaisyToolchain/0.2.0/arm/arm-none-eabi/include/c++/10.3.1/bits/basic_string.h ****    *  @ingroup sequences
  72:/Library/DaisyToolchain/0.2.0/arm/arm-none-eabi/include/c++/10.3.1/bits/basic_string.h ****    *
  73:/Library/DaisyToolchain/0.2.0/arm/arm-none-eabi/include/c++/10.3.1/bits/basic_string.h ****    *  @tparam _CharT  Type of character
  74:/Library/DaisyToolchain/0.2.0/arm/arm-none-eabi/include/c++/10.3.1/bits/basic_string.h ****    *  @tparam _Traits  Traits for character type, defaults to
  75:/Library/DaisyToolchain/0.2.0/arm/arm-none-eabi/include/c++/10.3.1/bits/basic_string.h ****    *                   char_traits<_CharT>.
  76:/Library/DaisyToolchain/0.2.0/arm/arm-none-eabi/include/c++/10.3.1/bits/basic_string.h ****    *  @tparam _Alloc  Allocator type, defaults to allocator<_CharT>.
  77:/Library/DaisyToolchain/0.2.0/arm/arm-none-eabi/include/c++/10.3.1/bits/basic_string.h ****    *
  78:/Library/DaisyToolchain/0.2.0/arm/arm-none-eabi/include/c++/10.3.1/bits/basic_string.h ****    *  Meets the requirements of a <a href="tables.html#65">container</a>, a
  79:/Library/DaisyToolchain/0.2.0/arm/arm-none-eabi/include/c++/10.3.1/bits/basic_string.h ****    *  <a href="tables.html#66">reversible container</a>, and a
  80:/Library/DaisyToolchain/0.2.0/arm/arm-none-eabi/include/c++/10.3.1/bits/basic_string.h ****    *  <a href="tables.html#67">sequence</a>.  Of the
  81:/Library/DaisyToolchain/0.2.0/arm/arm-none-eabi/include/c++/10.3.1/bits/basic_string.h ****    *  <a href="tables.html#68">optional sequence requirements</a>, only
  82:/Library/DaisyToolchain/0.2.0/arm/arm-none-eabi/include/c++/10.3.1/bits/basic_string.h ****    *  @c push_back, @c at, and @c %array access are supported.
  83:/Library/DaisyToolchain/0.2.0/arm/arm-none-eabi/include/c++/10.3.1/bits/basic_string.h ****    */
  84:/Library/DaisyToolchain/0.2.0/arm/arm-none-eabi/include/c++/10.3.1/bits/basic_string.h ****   template<typename _CharT, typename _Traits, typename _Alloc>
  85:/Library/DaisyToolchain/0.2.0/arm/arm-none-eabi/include/c++/10.3.1/bits/basic_string.h ****     class basic_string
  86:/Library/DaisyToolchain/0.2.0/arm/arm-none-eabi/include/c++/10.3.1/bits/basic_string.h ****     {
ARM GAS  /var/folders/9w/sxkx3zpj5vdcb536f5jvsqpc0000gn/T//ccNfV2cP.s 			page 51


  87:/Library/DaisyToolchain/0.2.0/arm/arm-none-eabi/include/c++/10.3.1/bits/basic_string.h ****       typedef typename __gnu_cxx::__alloc_traits<_Alloc>::template
  88:/Library/DaisyToolchain/0.2.0/arm/arm-none-eabi/include/c++/10.3.1/bits/basic_string.h **** 	rebind<_CharT>::other _Char_alloc_type;
  89:/Library/DaisyToolchain/0.2.0/arm/arm-none-eabi/include/c++/10.3.1/bits/basic_string.h ****       typedef __gnu_cxx::__alloc_traits<_Char_alloc_type> _Alloc_traits;
  90:/Library/DaisyToolchain/0.2.0/arm/arm-none-eabi/include/c++/10.3.1/bits/basic_string.h **** 
  91:/Library/DaisyToolchain/0.2.0/arm/arm-none-eabi/include/c++/10.3.1/bits/basic_string.h ****       // Types:
  92:/Library/DaisyToolchain/0.2.0/arm/arm-none-eabi/include/c++/10.3.1/bits/basic_string.h ****     public:
  93:/Library/DaisyToolchain/0.2.0/arm/arm-none-eabi/include/c++/10.3.1/bits/basic_string.h ****       typedef _Traits					traits_type;
  94:/Library/DaisyToolchain/0.2.0/arm/arm-none-eabi/include/c++/10.3.1/bits/basic_string.h ****       typedef typename _Traits::char_type		value_type;
  95:/Library/DaisyToolchain/0.2.0/arm/arm-none-eabi/include/c++/10.3.1/bits/basic_string.h ****       typedef _Char_alloc_type				allocator_type;
  96:/Library/DaisyToolchain/0.2.0/arm/arm-none-eabi/include/c++/10.3.1/bits/basic_string.h ****       typedef typename _Alloc_traits::size_type		size_type;
  97:/Library/DaisyToolchain/0.2.0/arm/arm-none-eabi/include/c++/10.3.1/bits/basic_string.h ****       typedef typename _Alloc_traits::difference_type	difference_type;
  98:/Library/DaisyToolchain/0.2.0/arm/arm-none-eabi/include/c++/10.3.1/bits/basic_string.h ****       typedef typename _Alloc_traits::reference		reference;
  99:/Library/DaisyToolchain/0.2.0/arm/arm-none-eabi/include/c++/10.3.1/bits/basic_string.h ****       typedef typename _Alloc_traits::const_reference	const_reference;
 100:/Library/DaisyToolchain/0.2.0/arm/arm-none-eabi/include/c++/10.3.1/bits/basic_string.h ****       typedef typename _Alloc_traits::pointer		pointer;
 101:/Library/DaisyToolchain/0.2.0/arm/arm-none-eabi/include/c++/10.3.1/bits/basic_string.h ****       typedef typename _Alloc_traits::const_pointer	const_pointer;
 102:/Library/DaisyToolchain/0.2.0/arm/arm-none-eabi/include/c++/10.3.1/bits/basic_string.h ****       typedef __gnu_cxx::__normal_iterator<pointer, basic_string>  iterator;
 103:/Library/DaisyToolchain/0.2.0/arm/arm-none-eabi/include/c++/10.3.1/bits/basic_string.h ****       typedef __gnu_cxx::__normal_iterator<const_pointer, basic_string>
 104:/Library/DaisyToolchain/0.2.0/arm/arm-none-eabi/include/c++/10.3.1/bits/basic_string.h **** 							const_iterator;
 105:/Library/DaisyToolchain/0.2.0/arm/arm-none-eabi/include/c++/10.3.1/bits/basic_string.h ****       typedef std::reverse_iterator<const_iterator>	const_reverse_iterator;
 106:/Library/DaisyToolchain/0.2.0/arm/arm-none-eabi/include/c++/10.3.1/bits/basic_string.h ****       typedef std::reverse_iterator<iterator>		reverse_iterator;
 107:/Library/DaisyToolchain/0.2.0/arm/arm-none-eabi/include/c++/10.3.1/bits/basic_string.h **** 
 108:/Library/DaisyToolchain/0.2.0/arm/arm-none-eabi/include/c++/10.3.1/bits/basic_string.h ****       ///  Value returned by various member functions when they fail.
 109:/Library/DaisyToolchain/0.2.0/arm/arm-none-eabi/include/c++/10.3.1/bits/basic_string.h ****       static const size_type	npos = static_cast<size_type>(-1);
 110:/Library/DaisyToolchain/0.2.0/arm/arm-none-eabi/include/c++/10.3.1/bits/basic_string.h **** 
 111:/Library/DaisyToolchain/0.2.0/arm/arm-none-eabi/include/c++/10.3.1/bits/basic_string.h ****     protected:
 112:/Library/DaisyToolchain/0.2.0/arm/arm-none-eabi/include/c++/10.3.1/bits/basic_string.h ****       // type used for positions in insert, erase etc.
 113:/Library/DaisyToolchain/0.2.0/arm/arm-none-eabi/include/c++/10.3.1/bits/basic_string.h **** #if __cplusplus < 201103L
 114:/Library/DaisyToolchain/0.2.0/arm/arm-none-eabi/include/c++/10.3.1/bits/basic_string.h ****       typedef iterator __const_iterator;
 115:/Library/DaisyToolchain/0.2.0/arm/arm-none-eabi/include/c++/10.3.1/bits/basic_string.h **** #else
 116:/Library/DaisyToolchain/0.2.0/arm/arm-none-eabi/include/c++/10.3.1/bits/basic_string.h ****       typedef const_iterator __const_iterator;
 117:/Library/DaisyToolchain/0.2.0/arm/arm-none-eabi/include/c++/10.3.1/bits/basic_string.h **** #endif
 118:/Library/DaisyToolchain/0.2.0/arm/arm-none-eabi/include/c++/10.3.1/bits/basic_string.h **** 
 119:/Library/DaisyToolchain/0.2.0/arm/arm-none-eabi/include/c++/10.3.1/bits/basic_string.h ****     private:
 120:/Library/DaisyToolchain/0.2.0/arm/arm-none-eabi/include/c++/10.3.1/bits/basic_string.h **** #if __cplusplus >= 201703L
 121:/Library/DaisyToolchain/0.2.0/arm/arm-none-eabi/include/c++/10.3.1/bits/basic_string.h ****       // A helper type for avoiding boiler-plate.
 122:/Library/DaisyToolchain/0.2.0/arm/arm-none-eabi/include/c++/10.3.1/bits/basic_string.h ****       typedef basic_string_view<_CharT, _Traits> __sv_type;
 123:/Library/DaisyToolchain/0.2.0/arm/arm-none-eabi/include/c++/10.3.1/bits/basic_string.h **** 
 124:/Library/DaisyToolchain/0.2.0/arm/arm-none-eabi/include/c++/10.3.1/bits/basic_string.h ****       template<typename _Tp, typename _Res>
 125:/Library/DaisyToolchain/0.2.0/arm/arm-none-eabi/include/c++/10.3.1/bits/basic_string.h **** 	using _If_sv = enable_if_t<
 126:/Library/DaisyToolchain/0.2.0/arm/arm-none-eabi/include/c++/10.3.1/bits/basic_string.h **** 	  __and_<is_convertible<const _Tp&, __sv_type>,
 127:/Library/DaisyToolchain/0.2.0/arm/arm-none-eabi/include/c++/10.3.1/bits/basic_string.h **** 		 __not_<is_convertible<const _Tp*, const basic_string*>>,
 128:/Library/DaisyToolchain/0.2.0/arm/arm-none-eabi/include/c++/10.3.1/bits/basic_string.h **** 		 __not_<is_convertible<const _Tp&, const _CharT*>>>::value,
 129:/Library/DaisyToolchain/0.2.0/arm/arm-none-eabi/include/c++/10.3.1/bits/basic_string.h **** 	  _Res>;
 130:/Library/DaisyToolchain/0.2.0/arm/arm-none-eabi/include/c++/10.3.1/bits/basic_string.h **** 
 131:/Library/DaisyToolchain/0.2.0/arm/arm-none-eabi/include/c++/10.3.1/bits/basic_string.h ****       // Allows an implicit conversion to __sv_type.
 132:/Library/DaisyToolchain/0.2.0/arm/arm-none-eabi/include/c++/10.3.1/bits/basic_string.h ****       static __sv_type
 133:/Library/DaisyToolchain/0.2.0/arm/arm-none-eabi/include/c++/10.3.1/bits/basic_string.h ****       _S_to_string_view(__sv_type __svt) noexcept
 134:/Library/DaisyToolchain/0.2.0/arm/arm-none-eabi/include/c++/10.3.1/bits/basic_string.h ****       { return __svt; }
 135:/Library/DaisyToolchain/0.2.0/arm/arm-none-eabi/include/c++/10.3.1/bits/basic_string.h **** 
 136:/Library/DaisyToolchain/0.2.0/arm/arm-none-eabi/include/c++/10.3.1/bits/basic_string.h ****       // Wraps a string_view by explicit conversion and thus
 137:/Library/DaisyToolchain/0.2.0/arm/arm-none-eabi/include/c++/10.3.1/bits/basic_string.h ****       // allows to add an internal constructor that does not
 138:/Library/DaisyToolchain/0.2.0/arm/arm-none-eabi/include/c++/10.3.1/bits/basic_string.h ****       // participate in overload resolution when a string_view
 139:/Library/DaisyToolchain/0.2.0/arm/arm-none-eabi/include/c++/10.3.1/bits/basic_string.h ****       // is provided.
 140:/Library/DaisyToolchain/0.2.0/arm/arm-none-eabi/include/c++/10.3.1/bits/basic_string.h ****       struct __sv_wrapper
 141:/Library/DaisyToolchain/0.2.0/arm/arm-none-eabi/include/c++/10.3.1/bits/basic_string.h ****       {
 142:/Library/DaisyToolchain/0.2.0/arm/arm-none-eabi/include/c++/10.3.1/bits/basic_string.h **** 	explicit __sv_wrapper(__sv_type __sv) noexcept : _M_sv(__sv) { }
 143:/Library/DaisyToolchain/0.2.0/arm/arm-none-eabi/include/c++/10.3.1/bits/basic_string.h **** 	__sv_type _M_sv;
ARM GAS  /var/folders/9w/sxkx3zpj5vdcb536f5jvsqpc0000gn/T//ccNfV2cP.s 			page 52


 144:/Library/DaisyToolchain/0.2.0/arm/arm-none-eabi/include/c++/10.3.1/bits/basic_string.h ****       };
 145:/Library/DaisyToolchain/0.2.0/arm/arm-none-eabi/include/c++/10.3.1/bits/basic_string.h **** 
 146:/Library/DaisyToolchain/0.2.0/arm/arm-none-eabi/include/c++/10.3.1/bits/basic_string.h ****       /**
 147:/Library/DaisyToolchain/0.2.0/arm/arm-none-eabi/include/c++/10.3.1/bits/basic_string.h ****        *  @brief  Only internally used: Construct string from a string view
 148:/Library/DaisyToolchain/0.2.0/arm/arm-none-eabi/include/c++/10.3.1/bits/basic_string.h ****        *          wrapper.
 149:/Library/DaisyToolchain/0.2.0/arm/arm-none-eabi/include/c++/10.3.1/bits/basic_string.h ****        *  @param  __svw  string view wrapper.
 150:/Library/DaisyToolchain/0.2.0/arm/arm-none-eabi/include/c++/10.3.1/bits/basic_string.h ****        *  @param  __a  Allocator to use.
 151:/Library/DaisyToolchain/0.2.0/arm/arm-none-eabi/include/c++/10.3.1/bits/basic_string.h ****        */
 152:/Library/DaisyToolchain/0.2.0/arm/arm-none-eabi/include/c++/10.3.1/bits/basic_string.h ****       explicit
 153:/Library/DaisyToolchain/0.2.0/arm/arm-none-eabi/include/c++/10.3.1/bits/basic_string.h ****       basic_string(__sv_wrapper __svw, const _Alloc& __a)
 154:/Library/DaisyToolchain/0.2.0/arm/arm-none-eabi/include/c++/10.3.1/bits/basic_string.h ****       : basic_string(__svw._M_sv.data(), __svw._M_sv.size(), __a) { }
 155:/Library/DaisyToolchain/0.2.0/arm/arm-none-eabi/include/c++/10.3.1/bits/basic_string.h **** #endif
 156:/Library/DaisyToolchain/0.2.0/arm/arm-none-eabi/include/c++/10.3.1/bits/basic_string.h **** 
